EXPORTS
    _ZN14GraphTraversalI4EdgeS0_E10appendStepEP13TraversalStep @1
    _ZN14GraphTraversalI4EdgeS0_E16forEachRemainingESt8functionIFvPS0_EE @2
    _ZN14GraphTraversalI4EdgeS0_E18getTraversalSourceEv @3
    _ZN14GraphTraversalI4EdgeS0_E19getInitialTraversalEv @4
    _ZN14GraphTraversalI4EdgeS0_E4nextEv @5
    _ZN14GraphTraversalI4EdgeS0_E7iterateEv @6
    _ZN14GraphTraversalI4EdgeS0_E8getGraphEv @7
    _ZN14GraphTraversalI4EdgeS0_EC2EP20GraphTraversalSource @8
    _ZN14GraphTraversalI6VertexS0_E10appendStepEP13TraversalStep @9
    _ZN14GraphTraversalI6VertexS0_E16forEachRemainingESt8functionIFvPS0_EE @10
    _ZN14GraphTraversalI6VertexS0_E18getTraversalSourceEv @11
    _ZN14GraphTraversalI6VertexS0_E19getInitialTraversalEv @12
    _ZN14GraphTraversalI6VertexS0_E4nextEv @13
    _ZN14GraphTraversalI6VertexS0_E4outEEv @14
    _ZN14GraphTraversalI6VertexS0_E7iterateEv @15
    _ZN14GraphTraversalI6VertexS0_E8getGraphEv @16
    _ZN14GraphTraversalI6VertexS0_EC2EP20GraphTraversalSource @17
    _ZN14GraphTraversalIPv6VertexE16forEachRemainingESt8functionIFvPS1_EE @18
    _ZN14GraphTraversalIPv6VertexE18getTraversalSourceEv @19
    _ZN14GraphTraversalIPv6VertexE19getInitialTraversalEv @20
    _ZN14GraphTraversalIPv6VertexE4nextEv @21
    _ZN14GraphTraversalIPv6VertexE7iterateEv @22
    _ZN14GraphTraversalIPv6VertexE8getGraphEv @23
    _ZN14GraphTraversalIPv6VertexE8getStepsEv @24
    _ZN14GraphTraversalIPv6VertexEC2EP20GraphTraversalSource @25
    _ZN14GraphTraversalIPv6VertexED2Ev @26
    _ZN14VertexPropertyIPvE3keyEv @27
    _ZN14VertexPropertyIPvE5valueEv @28
    _ZN14VertexPropertyIPvE6valuesEv @29
    _ZN14VertexPropertyIPvEC1E11CardinalitySsSt6vectorIS0_SaIS0_EE @30
    _ZN14VertexPropertyIPvED1Ev @31
    _ZN17CPUGraphTraversalI4EdgeS0_E15copy_traversersEPSt6vectorIP9TraverserIPvESaIS6_EE @32
    _ZN17CPUGraphTraversalI4EdgeS0_E16forEachRemainingESt8functionIFvPS0_EE @33
    _ZN17CPUGraphTraversalI4EdgeS0_E19getInitialTraversalEv @34
    _ZN17CPUGraphTraversalI4EdgeS0_E22get_initial_traversersEv @35
    _ZN17CPUGraphTraversalI4EdgeS0_E4nextEv @36
    _ZN17CPUGraphTraversalI4EdgeS0_E7executeEPSt6vectorIP9TraverserIPvESaIS6_EE @37
    _ZN17CPUGraphTraversalI4EdgeS0_E7iterateEv @38
    _ZN17CPUGraphTraversalI4EdgeS0_E8get_nextEPSt6vectorIP9TraverserIPvESaIS6_EEPS_IS4_S4_E @39
    _ZN17CPUGraphTraversalI4EdgeS0_EC1EP20GraphTraversalSource @40
    _ZN17CPUGraphTraversalI6VertexS0_E15copy_traversersEPSt6vectorIP9TraverserIPvESaIS6_EE @41
    _ZN17CPUGraphTraversalI6VertexS0_E16forEachRemainingESt8functionIFvPS0_EE @42
    _ZN17CPUGraphTraversalI6VertexS0_E19getInitialTraversalEv @43
    _ZN17CPUGraphTraversalI6VertexS0_E22get_initial_traversersEv @44
    _ZN17CPUGraphTraversalI6VertexS0_E4nextEv @45
    _ZN17CPUGraphTraversalI6VertexS0_E7executeEPSt6vectorIP9TraverserIPvESaIS6_EE @46
    _ZN17CPUGraphTraversalI6VertexS0_E7iterateEv @47
    _ZN17CPUGraphTraversalI6VertexS0_E8get_nextEPSt6vectorIP9TraverserIPvESaIS6_EEPS_IS4_S4_E @48
    _ZN17CPUGraphTraversalI6VertexS0_EC1EP20GraphTraversalSource @49
    _ZN17CPUGraphTraversalIPv6VertexE15copy_traversersEPSt6vectorIP9TraverserIS0_ESaIS6_EE @50
    _ZN17CPUGraphTraversalIPv6VertexE16forEachRemainingESt8functionIFvPS1_EE @51
    _ZN17CPUGraphTraversalIPv6VertexE19getInitialTraversalEv @52
    _ZN17CPUGraphTraversalIPv6VertexE22get_initial_traversersEv @53
    _ZN17CPUGraphTraversalIPv6VertexE4nextEv @54
    _ZN17CPUGraphTraversalIPv6VertexE7executeEPSt6vectorIP9TraverserIS0_ESaIS6_EE @55
    _ZN17CPUGraphTraversalIPv6VertexE7iterateEv @56
    _ZN17CPUGraphTraversalIPv6VertexE8get_nextEPSt6vectorIP9TraverserIS0_ESaIS6_EEPS_IS0_S0_E @57
    _ZN17CPUGraphTraversalIPv6VertexEC1EP20GraphTraversalSourceP14GraphTraversalIS0_S1_E @58
    _ZN17CPUGraphTraversalIPv6VertexED1Ev @59
    _ZN23CPUGraphTraversalSource1EEv @60
    _ZN23CPUGraphTraversalSource1VEv @61
    _ZN23CPUGraphTraversalSource4addEESs @62
    _ZN23CPUGraphTraversalSource4addVESs @63
    _ZN23CPUGraphTraversalSource4addVEv @64
    _ZN23CPUGraphTraversalSourceC1EP8CPUGraph @65
    _ZN23CPUGraphTraversalSourceC2EP8CPUGraph @66
    _ZN4Edge5bothVEv @67
    _ZN4EdgeC2Ev @68
    _ZN6VertexC2Ev @69
    _ZN7BitEdge2idEv @70
    _ZN7BitEdge3inVEv @71
    _ZN7BitEdge4outVEv @72
    _ZN7BitEdge5labelEv @73
    _ZN7BitEdgeC1EmP6VertexS1_Ss @74
    _ZN7BitEdgeC2EmP6VertexS1_Ss @75
    _ZN7ElementC2Ev @76
    _ZN7HasStepIPvE5applyEP6Vertex @77
    _ZN8CPUGraph10add_vertexESs @78
    _ZN8CPUGraph10add_vertexEv @79
    _ZN8CPUGraph5edgesEv @80
    _ZN8CPUGraph8add_edgeEP9BitVertexS1_Ss @81
    _ZN8CPUGraph8verticesEv @82
    _ZN8CPUGraph9traversalEv @83
    _ZN8CPUGraphC1Ev @84
    _ZN8CPUGraphC2Ev @85
    _ZN8NoOpStep7getInfoEv @86
    _ZN8NoOpStepC1Ev @87
    _ZN8PropertyIPvEC2Ev @88
    _ZN9BitVertex2idEv @89
    _ZN9BitVertex5edgesE9Direction @90
    _ZN9BitVertex5labelEv @91
    _ZN9BitVertex7addEdgeEP7BitEdge9Direction @92
    _ZN9BitVertex8hasLabelEv @93
    _ZN9BitVertex8propertyE11CardinalitySsPv @94
    _ZN9BitVertex8propertyESs @95
    _ZN9BitVertex8propertyESsPv @96
    _ZN9BitVertexC1Em @97
    _ZN9BitVertexC1EmSs @98
    _ZN9BitVertexC2Em @99
    _ZN9BitVertexC2EmSs @100
    _ZN9TraverserIP6VertexE12replace_dataES1_ @101
    _ZN9TraverserIP6VertexE3getEv @102
    _ZN9TraverserIP6VertexEC1ES1_ @103
    _ZN9TraverserIPvE12replace_dataES0_ @104
    _ZN9TraverserIPvE3getEv @105
    _ZN9TraverserIPvEC1ES0_ @106
    _ZN9TraverserIPvED1Ev @107
    _ZN9__gnu_cxx13new_allocatorIP13TraversalStepE10deallocateEPS2_m @108
    _ZN9__gnu_cxx13new_allocatorIP13TraversalStepE7destroyIS2_EEvPT_ @109
    _ZN9__gnu_cxx13new_allocatorIP13TraversalStepE8allocateEmPKv @110
    _ZN9__gnu_cxx13new_allocatorIP13TraversalStepE9constructIS2_JP10VertexStepEEEvPT_DpOT0_ @111
    _ZN9__gnu_cxx13new_allocatorIP13TraversalStepE9constructIS2_JRKS2_EEEvPT_DpOT0_ @112
    _ZN9__gnu_cxx13new_allocatorIP13TraversalStepE9constructIS2_JS2_EEEvPT_DpOT0_ @113
    _ZN9__gnu_cxx13new_allocatorIP13TraversalStepEC2ERKS3_ @114
    _ZN9__gnu_cxx13new_allocatorIP13TraversalStepEC2Ev @115
    _ZN9__gnu_cxx13new_allocatorIP13TraversalStepED2Ev @116
    _ZN9__gnu_cxx13new_allocatorIP4EdgeE10deallocateEPS2_m @117
    _ZN9__gnu_cxx13new_allocatorIP4EdgeE8allocateEmPKv @118
    _ZN9__gnu_cxx13new_allocatorIP4EdgeEC2ERKS3_ @119
    _ZN9__gnu_cxx13new_allocatorIP4EdgeEC2Ev @120
    _ZN9__gnu_cxx13new_allocatorIP4EdgeED2Ev @121
    _ZN9__gnu_cxx13new_allocatorIP6VertexE10deallocateEPS2_m @122
    _ZN9__gnu_cxx13new_allocatorIP6VertexE7destroyIS2_EEvPT_ @123
    _ZN9__gnu_cxx13new_allocatorIP6VertexE8allocateEmPKv @124
    _ZN9__gnu_cxx13new_allocatorIP6VertexE9constructIS2_JRKS2_EEEvPT_DpOT0_ @125
    _ZN9__gnu_cxx13new_allocatorIP6VertexEC2ERKS3_ @126
    _ZN9__gnu_cxx13new_allocatorIP6VertexEC2Ev @127
    _ZN9__gnu_cxx13new_allocatorIP6VertexED2Ev @128
    _ZN9__gnu_cxx13new_allocatorIP7BitEdgeE10deallocateEPS2_m @129
    _ZN9__gnu_cxx13new_allocatorIP7BitEdgeE7destroyIS2_EEvPT_ @130
    _ZN9__gnu_cxx13new_allocatorIP7BitEdgeE8allocateEmPKv @131
    _ZN9__gnu_cxx13new_allocatorIP7BitEdgeE9constructIS2_JRKS2_EEEvPT_DpOT0_ @132
    _ZN9__gnu_cxx13new_allocatorIP7BitEdgeEC2ERKS3_ @133
    _ZN9__gnu_cxx13new_allocatorIP7BitEdgeEC2Ev @134
    _ZN9__gnu_cxx13new_allocatorIP7BitEdgeED2Ev @135
    _ZN9__gnu_cxx13new_allocatorIP9TraverserIPvEE10deallocateEPS4_m @136
    _ZN9__gnu_cxx13new_allocatorIP9TraverserIPvEE7destroyIS4_EEvPT_ @137
    _ZN9__gnu_cxx13new_allocatorIP9TraverserIPvEE8allocateEmPKv @138
    _ZN9__gnu_cxx13new_allocatorIP9TraverserIPvEE9constructIS4_JS4_EEEvPT_DpOT0_ @139
    _ZN9__gnu_cxx13new_allocatorIP9TraverserIPvEEC2Ev @140
    _ZN9__gnu_cxx13new_allocatorIP9TraverserIPvEED2Ev @141
    _ZN9__gnu_cxx13new_allocatorIPvE10deallocateEPS1_m @142
    _ZN9__gnu_cxx13new_allocatorIPvE7destroyIS1_EEvPT_ @143
    _ZN9__gnu_cxx13new_allocatorIPvE8allocateEmPKv @144
    _ZN9__gnu_cxx13new_allocatorIPvE9constructIS1_JRKS1_EEEvPT_DpOT0_ @145
    _ZN9__gnu_cxx13new_allocatorIPvEC2ERKS2_ @146
    _ZN9__gnu_cxx13new_allocatorIPvEC2Ev @147
    _ZN9__gnu_cxx13new_allocatorIPvED2Ev @148
    _ZN9__gnu_cxx13new_allocatorISsE10deallocateEPSsm @149
    _ZN9__gnu_cxx13new_allocatorISsEC2Ev @150
    _ZN9__gnu_cxx13new_allocatorISsED2Ev @151
    _ZN9__gnu_cxx13new_allocatorISt10_List_nodeIPvEE10deallocateEPS3_m @152
    _ZN9__gnu_cxx13new_allocatorISt10_List_nodeIPvEE7destroyIS3_EEvPT_ @153
    _ZN9__gnu_cxx13new_allocatorISt10_List_nodeIPvEEC2Ev @154
    _ZN9__gnu_cxx13new_allocatorISt10_List_nodeIPvEED2Ev @155
    _ZN9__gnu_cxx13new_allocatorISt13_Rb_tree_nodeIPvEE10deallocateEPS3_m @156
    _ZN9__gnu_cxx13new_allocatorISt13_Rb_tree_nodeIPvEE7destroyIS2_EEvPT_ @157
    _ZN9__gnu_cxx13new_allocatorISt13_Rb_tree_nodeIPvEE8allocateEmPKv @158
    _ZN9__gnu_cxx13new_allocatorISt13_Rb_tree_nodeIPvEE9constructIS2_JRKS2_EEEvPT_DpOT0_ @159
    _ZN9__gnu_cxx13new_allocatorISt13_Rb_tree_nodeIPvEEC2Ev @160
    _ZN9__gnu_cxx13new_allocatorISt13_Rb_tree_nodeIPvEED2Ev @161
    _ZN9__gnu_cxx13new_allocatorISt13_Rb_tree_nodeISt4pairIKSsP14VertexPropertyIPvEEEE10deallocateEPS9_m @162
    _ZN9__gnu_cxx13new_allocatorISt13_Rb_tree_nodeISt4pairIKSsP14VertexPropertyIPvEEEE7destroyIS8_EEvPT_ @163
    _ZN9__gnu_cxx13new_allocatorISt13_Rb_tree_nodeISt4pairIKSsP14VertexPropertyIPvEEEE8allocateEmPKv @164
    _ZN9__gnu_cxx13new_allocatorISt13_Rb_tree_nodeISt4pairIKSsP14VertexPropertyIPvEEEE9constructIS8_JRKSt21piecewise_construct_tSt5tupleIJRS3_EESF_IJEEEEEvPT_DpOT0_ @165
    _ZN9__gnu_cxx13new_allocatorISt13_Rb_tree_nodeISt4pairIKSsP14VertexPropertyIPvEEEEC2Ev @166
    _ZN9__gnu_cxx13new_allocatorISt13_Rb_tree_nodeISt4pairIKSsP14VertexPropertyIPvEEEED2Ev @167
    _ZN9__gnu_cxx13new_allocatorISt13_Rb_tree_nodeISt4pairIKSsPvEEE10deallocateEPS6_m @168
    _ZN9__gnu_cxx13new_allocatorISt13_Rb_tree_nodeISt4pairIKSsPvEEE7destroyIS5_EEvPT_ @169
    _ZN9__gnu_cxx13new_allocatorISt13_Rb_tree_nodeISt4pairIKSsPvEEEC2Ev @170
    _ZN9__gnu_cxx13new_allocatorISt13_Rb_tree_nodeISt4pairIKSsPvEEED2Ev @171
    _ZN9__gnu_cxx13new_allocatorISt13_Rb_tree_nodeISt4pairIKmmEEE10deallocateEPS5_m @172
    _ZN9__gnu_cxx13new_allocatorISt13_Rb_tree_nodeISt4pairIKmmEEE7destroyIS4_EEvPT_ @173
    _ZN9__gnu_cxx13new_allocatorISt13_Rb_tree_nodeISt4pairIKmmEEE8allocateEmPKv @174
    _ZN9__gnu_cxx13new_allocatorISt13_Rb_tree_nodeISt4pairIKmmEEE9constructIS4_JRKSt21piecewise_construct_tSt5tupleIJRS3_EESB_IJEEEEEvPT_DpOT0_ @175
    _ZN9__gnu_cxx13new_allocatorISt13_Rb_tree_nodeISt4pairIKmmEEEC2Ev @176
    _ZN9__gnu_cxx13new_allocatorISt13_Rb_tree_nodeISt4pairIKmmEEED2Ev @177
    _ZN9__gnu_cxx14__alloc_traitsISaIP13TraversalStepEE17_S_select_on_copyERKS3_ @178
    _ZN9__gnu_cxx14__alloc_traitsISaIP4EdgeEE17_S_select_on_copyERKS3_ @179
    _ZN9__gnu_cxx14__alloc_traitsISaIP6VertexEE17_S_select_on_copyERKS3_ @180
    _ZN9__gnu_cxx14__alloc_traitsISaIP7BitEdgeEE17_S_select_on_copyERKS3_ @181
    _ZN9__gnu_cxx14__alloc_traitsISaIPvEE17_S_select_on_copyERKS2_ @182
    _ZN9__gnu_cxx16__aligned_membufIPvE6_M_ptrEv @183
    _ZN9__gnu_cxx16__aligned_membufIPvE7_M_addrEv @184
    _ZN9__gnu_cxx16__aligned_membufIPvEC1Ev @185
    _ZN9__gnu_cxx16__aligned_membufISt4pairIKSsP14VertexPropertyIPvEEE6_M_ptrEv @186
    _ZN9__gnu_cxx16__aligned_membufISt4pairIKSsP14VertexPropertyIPvEEE7_M_addrEv @187
    _ZN9__gnu_cxx16__aligned_membufISt4pairIKSsP14VertexPropertyIPvEEEC1Ev @188
    _ZN9__gnu_cxx16__aligned_membufISt4pairIKSsPvEE6_M_ptrEv @189
    _ZN9__gnu_cxx16__aligned_membufISt4pairIKSsPvEE7_M_addrEv @190
    _ZN9__gnu_cxx16__aligned_membufISt4pairIKmmEE6_M_ptrEv @191
    _ZN9__gnu_cxx16__aligned_membufISt4pairIKmmEE7_M_addrEv @192
    _ZN9__gnu_cxx16__aligned_membufISt4pairIKmmEEC1Ev @193
    _ZN9__gnu_cxx17__normal_iteratorIPKP13TraversalStepSt6vectorIS2_SaIS2_EEEC1ERKS4_ @194
    _ZN9__gnu_cxx17__normal_iteratorIPKP13TraversalStepSt6vectorIS2_SaIS2_EEEC1IPS2_EERKNS0_IT_NS_11__enable_ifIXsrSt10__are_sameISB_SA_E7__valueES7_E6__typeEEE @195
    _ZN9__gnu_cxx17__normal_iteratorIPKP4EdgeSt6vectorIS2_SaIS2_EEEC1ERKS4_ @196
    _ZN9__gnu_cxx17__normal_iteratorIPKP6VertexSt6vectorIS2_SaIS2_EEEC1ERKS4_ @197
    _ZN9__gnu_cxx17__normal_iteratorIPKP7BitEdgeSt6vectorIS2_SaIS2_EEEC1ERKS4_ @198
    _ZN9__gnu_cxx17__normal_iteratorIPKP9TraverserIPvESt6vectorIS4_SaIS4_EEEC1ERKS6_ @199
    _ZN9__gnu_cxx17__normal_iteratorIPKP9TraverserIPvESt6vectorIS4_SaIS4_EEEC1IPS4_EERKNS0_IT_NS_11__enable_ifIXsrSt10__are_sameISD_SC_E7__valueES9_E6__typeEEE @200
    _ZN9__gnu_cxx17__normal_iteratorIPKPvSt6vectorIS1_SaIS1_EEEC1ERKS3_ @201
    _ZN9__gnu_cxx17__normal_iteratorIPP13TraversalStepSt6vectorIS2_SaIS2_EEEC1ERKS3_ @202
    _ZN9__gnu_cxx17__normal_iteratorIPP13TraversalStepSt6vectorIS2_SaIS2_EEEppEv @203
    _ZN9__gnu_cxx17__normal_iteratorIPP6VertexSt6vectorIS2_SaIS2_EEEC1ERKS3_ @204
    _ZN9__gnu_cxx17__normal_iteratorIPP6VertexSt6vectorIS2_SaIS2_EEEppEv @205
    _ZN9__gnu_cxx17__normal_iteratorIPP7BitEdgeSt6vectorIS2_SaIS2_EEEC1ERKS3_ @206
    _ZN9__gnu_cxx17__normal_iteratorIPP7BitEdgeSt6vectorIS2_SaIS2_EEEppEv @207
    _ZN9__gnu_cxx17__normal_iteratorIPP9TraverserIPvESt6vectorIS4_SaIS4_EEEC1ERKS5_ @208
    _ZN9__gnu_cxx17__normal_iteratorIPP9TraverserIPvESt6vectorIS4_SaIS4_EEEppEv @209
    _ZN9__gnu_cxx17__normal_iteratorIPPvSt6vectorIS1_SaIS1_EEEC1ERKS2_ @210
    _ZN9__gnu_cxx17__normal_iteratorIPPvSt6vectorIS1_SaIS1_EEEppEv @211
    _ZN9__gnu_cxxeqIPKP13TraversalStepPS2_St6vectorIS2_SaIS2_EEEEbRKNS_17__normal_iteratorIT_T1_EERKNS9_IT0_SB_EE @212
    _ZN9__gnu_cxxeqIPKP13TraversalStepSt6vectorIS2_SaIS2_EEEEbRKNS_17__normal_iteratorIT_T0_EESD_ @213
    _ZN9__gnu_cxxeqIPKP9TraverserIPvESt6vectorIS4_SaIS4_EEEEbRKNS_17__normal_iteratorIT_T0_EESF_ @214
    _ZN9__gnu_cxxmiIPKP13TraversalStepPS2_St6vectorIS2_SaIS2_EEEEDTmicldtfp_4baseEcldtfp0_4baseEERKNS_17__normal_iteratorIT_T1_EERKNSA_IT0_SC_EE @215
    _ZN9__gnu_cxxmiIPKP13TraversalStepSt6vectorIS2_SaIS2_EEEENS_17__normal_iteratorIT_T0_E15difference_typeERKSB_SE_ @216
    _ZN9__gnu_cxxmiIPKP9TraverserIPvESt6vectorIS4_SaIS4_EEEENS_17__normal_iteratorIT_T0_E15difference_typeERKSD_SG_ @217
    _ZN9__gnu_cxxmiIPP13TraversalStepSt6vectorIS2_SaIS2_EEEENS_17__normal_iteratorIT_T0_E15difference_typeERKSA_SD_ @218
    _ZN9__gnu_cxxmiIPPvSt6vectorIS1_SaIS1_EEEENS_17__normal_iteratorIT_T0_E15difference_typeERKS9_SC_ @219
    _ZN9__gnu_cxxneIPP13TraversalStepSt6vectorIS2_SaIS2_EEEEbRKNS_17__normal_iteratorIT_T0_EESC_ @220
    _ZN9__gnu_cxxneIPP6VertexSt6vectorIS2_SaIS2_EEEEbRKNS_17__normal_iteratorIT_T0_EESC_ @221
    _ZN9__gnu_cxxneIPP7BitEdgeSt6vectorIS2_SaIS2_EEEEbRKNS_17__normal_iteratorIT_T0_EESC_ @222
    _ZN9__gnu_cxxneIPP9TraverserIPvESt6vectorIS4_SaIS4_EEEEbRKNS_17__normal_iteratorIT_T0_EESE_ @223
    _ZN9__gnu_cxxneIPPvSt6vectorIS1_SaIS1_EEEEbRKNS_17__normal_iteratorIT_T0_EESB_ @224
    _ZNK9__gnu_cxx13new_allocatorIP13TraversalStepE8max_sizeEv @225
    _ZNK9__gnu_cxx13new_allocatorIP4EdgeE8max_sizeEv @226
    _ZNK9__gnu_cxx13new_allocatorIP6VertexE8max_sizeEv @227
    _ZNK9__gnu_cxx13new_allocatorIP7BitEdgeE8max_sizeEv @228
    _ZNK9__gnu_cxx13new_allocatorIP9TraverserIPvEE8max_sizeEv @229
    _ZNK9__gnu_cxx13new_allocatorIPvE8max_sizeEv @230
    _ZNK9__gnu_cxx13new_allocatorISt13_Rb_tree_nodeIPvEE8max_sizeEv @231
    _ZNK9__gnu_cxx13new_allocatorISt13_Rb_tree_nodeISt4pairIKSsP14VertexPropertyIPvEEEE8max_sizeEv @232
    _ZNK9__gnu_cxx13new_allocatorISt13_Rb_tree_nodeISt4pairIKmmEEE8max_sizeEv @233
    _ZNK9__gnu_cxx16__aligned_membufIPvE6_M_ptrEv @234
    _ZNK9__gnu_cxx16__aligned_membufIPvE7_M_addrEv @235
    _ZNK9__gnu_cxx16__aligned_membufISt4pairIKSsP14VertexPropertyIPvEEE6_M_ptrEv @236
    _ZNK9__gnu_cxx16__aligned_membufISt4pairIKSsP14VertexPropertyIPvEEE7_M_addrEv @237
    _ZNK9__gnu_cxx16__aligned_membufISt4pairIKmmEE6_M_ptrEv @238
    _ZNK9__gnu_cxx16__aligned_membufISt4pairIKmmEE7_M_addrEv @239
    _ZNK9__gnu_cxx17__normal_iteratorIPKP13TraversalStepSt6vectorIS2_SaIS2_EEE4baseEv @240
    _ZNK9__gnu_cxx17__normal_iteratorIPKP4EdgeSt6vectorIS2_SaIS2_EEE4baseEv @241
    _ZNK9__gnu_cxx17__normal_iteratorIPKP6VertexSt6vectorIS2_SaIS2_EEE4baseEv @242
    _ZNK9__gnu_cxx17__normal_iteratorIPKP7BitEdgeSt6vectorIS2_SaIS2_EEE4baseEv @243
    _ZNK9__gnu_cxx17__normal_iteratorIPKP9TraverserIPvESt6vectorIS4_SaIS4_EEE4baseEv @244
    _ZNK9__gnu_cxx17__normal_iteratorIPKPvSt6vectorIS1_SaIS1_EEE4baseEv @245
    _ZNK9__gnu_cxx17__normal_iteratorIPP13TraversalStepSt6vectorIS2_SaIS2_EEE4baseEv @246
    _ZNK9__gnu_cxx17__normal_iteratorIPP13TraversalStepSt6vectorIS2_SaIS2_EEEdeEv @247
    _ZNK9__gnu_cxx17__normal_iteratorIPP13TraversalStepSt6vectorIS2_SaIS2_EEEplEl @248
    _ZNK9__gnu_cxx17__normal_iteratorIPP6VertexSt6vectorIS2_SaIS2_EEE4baseEv @249
    _ZNK9__gnu_cxx17__normal_iteratorIPP6VertexSt6vectorIS2_SaIS2_EEEdeEv @250
    _ZNK9__gnu_cxx17__normal_iteratorIPP6VertexSt6vectorIS2_SaIS2_EEEmiEl @251
    _ZNK9__gnu_cxx17__normal_iteratorIPP7BitEdgeSt6vectorIS2_SaIS2_EEE4baseEv @252
    _ZNK9__gnu_cxx17__normal_iteratorIPP7BitEdgeSt6vectorIS2_SaIS2_EEEdeEv @253
    _ZNK9__gnu_cxx17__normal_iteratorIPP9TraverserIPvESt6vectorIS4_SaIS4_EEE4baseEv @254
    _ZNK9__gnu_cxx17__normal_iteratorIPP9TraverserIPvESt6vectorIS4_SaIS4_EEEdeEv @255
    _ZNK9__gnu_cxx17__normal_iteratorIPP9TraverserIPvESt6vectorIS4_SaIS4_EEEplEl @256
    _ZNK9__gnu_cxx17__normal_iteratorIPPvSt6vectorIS1_SaIS1_EEE4baseEv @257
    _ZNK9__gnu_cxx17__normal_iteratorIPPvSt6vectorIS1_SaIS1_EEEdeEv @258
    _ZNKSt10_Select1stISt4pairIKSsP14VertexPropertyIPvEEEclERKS6_ @259
    _ZNKSt10_Select1stISt4pairIKmmEEclERKS2_ @260
    _ZNKSt12_Vector_baseIP13TraversalStepSaIS1_EE19_M_get_Tp_allocatorEv @261
    _ZNKSt12_Vector_baseIP4EdgeSaIS1_EE19_M_get_Tp_allocatorEv @262
    _ZNKSt12_Vector_baseIP6VertexSaIS1_EE19_M_get_Tp_allocatorEv @263
    _ZNKSt12_Vector_baseIP7BitEdgeSaIS1_EE19_M_get_Tp_allocatorEv @264
    _ZNKSt12_Vector_baseIP9TraverserIPvESaIS3_EE19_M_get_Tp_allocatorEv @265
    _ZNKSt12_Vector_baseIPvSaIS0_EE19_M_get_Tp_allocatorEv @266
    _ZNKSt13_Rb_tree_nodeIPvE9_M_valptrEv @267
    _ZNKSt13_Rb_tree_nodeISt4pairIKSsP14VertexPropertyIPvEEE9_M_valptrEv @268
    _ZNKSt13_Rb_tree_nodeISt4pairIKmmEE9_M_valptrEv @269
    _ZNKSt13move_iteratorIPP13TraversalStepE4baseEv @270
    _ZNKSt13move_iteratorIPP6VertexE4baseEv @271
    _ZNKSt13move_iteratorIPP7BitEdgeE4baseEv @272
    _ZNKSt13move_iteratorIPP9TraverserIPvEE4baseEv @273
    _ZNKSt13move_iteratorIPPvE4baseEv @274
    _ZNKSt16initializer_listIPvE3endEv @275
    _ZNKSt16initializer_listIPvE4sizeEv @276
    _ZNKSt16initializer_listIPvE5beginEv @277
    _ZNKSt17_Rb_tree_iteratorIPvEeqERKS1_ @278
    _ZNKSt17_Rb_tree_iteratorISt4pairIKSsP14VertexPropertyIPvEEEdeEv @279
    _ZNKSt17_Rb_tree_iteratorISt4pairIKSsP14VertexPropertyIPvEEEeqERKS7_ @280
    _ZNKSt17_Rb_tree_iteratorISt4pairIKSsP14VertexPropertyIPvEEEneERKS7_ @281
    _ZNKSt17_Rb_tree_iteratorISt4pairIKSsP14VertexPropertyIPvEEEptEv @282
    _ZNKSt17_Rb_tree_iteratorISt4pairIKmmEEdeEv @283
    _ZNKSt17_Rb_tree_iteratorISt4pairIKmmEEeqERKS3_ @284
    _ZNKSt17_Rb_tree_iteratorISt4pairIKmmEEneERKS3_ @285
    _ZNKSt23_Rb_tree_const_iteratorIPvEdeEv @286
    _ZNKSt23_Rb_tree_const_iteratorIPvEneERKS1_ @287
    _ZNKSt23_Rb_tree_const_iteratorISt4pairIKSsP14VertexPropertyIPvEEE13_M_const_castEv @288
    _ZNKSt23_Rb_tree_const_iteratorISt4pairIKmmEE13_M_const_castEv @289
    _ZNKSt3mapISsP14VertexPropertyIPvESt4lessISsESaISt4pairIKSsS3_EEE8key_compEv @290
    _ZNKSt3mapImmSt4lessImESaISt4pairIKmmEEE8key_compEv @291
    _ZNKSt3setIPvSt4lessIS0_ESaIS0_EE3endEv @292
    _ZNKSt3setIPvSt4lessIS0_ESaIS0_EE5beginEv @293
    _ZNKSt4lessIPvEclERKS0_S3_ @294
    _ZNKSt4lessISsEclERKSsS2_ @295
    _ZNKSt4lessImEclERKmS2_ @296
    _ZNKSt6vectorIP13TraversalStepSaIS1_EE12_M_check_lenEmPKc @297
    _ZNKSt6vectorIP13TraversalStepSaIS1_EE3endEv @298
    _ZNKSt6vectorIP13TraversalStepSaIS1_EE4sizeEv @299
    _ZNKSt6vectorIP13TraversalStepSaIS1_EE5beginEv @300
    _ZNKSt6vectorIP13TraversalStepSaIS1_EE5emptyEv @301
    _ZNKSt6vectorIP13TraversalStepSaIS1_EE6cbeginEv @302
    _ZNKSt6vectorIP13TraversalStepSaIS1_EE8max_sizeEv @303
    _ZNKSt6vectorIP4EdgeSaIS1_EE3endEv @304
    _ZNKSt6vectorIP4EdgeSaIS1_EE4sizeEv @305
    _ZNKSt6vectorIP4EdgeSaIS1_EE5beginEv @306
    _ZNKSt6vectorIP6VertexSaIS1_EE12_M_check_lenEmPKc @307
    _ZNKSt6vectorIP6VertexSaIS1_EE3endEv @308
    _ZNKSt6vectorIP6VertexSaIS1_EE4sizeEv @309
    _ZNKSt6vectorIP6VertexSaIS1_EE5beginEv @310
    _ZNKSt6vectorIP6VertexSaIS1_EE8max_sizeEv @311
    _ZNKSt6vectorIP7BitEdgeSaIS1_EE12_M_check_lenEmPKc @312
    _ZNKSt6vectorIP7BitEdgeSaIS1_EE3endEv @313
    _ZNKSt6vectorIP7BitEdgeSaIS1_EE4sizeEv @314
    _ZNKSt6vectorIP7BitEdgeSaIS1_EE5beginEv @315
    _ZNKSt6vectorIP7BitEdgeSaIS1_EE8max_sizeEv @316
    _ZNKSt6vectorIP9TraverserIPvESaIS3_EE12_M_check_lenEmPKc @317
    _ZNKSt6vectorIP9TraverserIPvESaIS3_EE14_M_range_checkEm @318
    _ZNKSt6vectorIP9TraverserIPvESaIS3_EE3endEv @319
    _ZNKSt6vectorIP9TraverserIPvESaIS3_EE4sizeEv @320
    _ZNKSt6vectorIP9TraverserIPvESaIS3_EE5beginEv @321
    _ZNKSt6vectorIP9TraverserIPvESaIS3_EE5emptyEv @322
    _ZNKSt6vectorIP9TraverserIPvESaIS3_EE6cbeginEv @323
    _ZNKSt6vectorIP9TraverserIPvESaIS3_EE8max_sizeEv @324
    _ZNKSt6vectorIPvSaIS0_EE12_M_check_lenEmPKc @325
    _ZNKSt6vectorIPvSaIS0_EE14_M_range_checkEm @326
    _ZNKSt6vectorIPvSaIS0_EE3endEv @327
    _ZNKSt6vectorIPvSaIS0_EE4sizeEv @328
    _ZNKSt6vectorIPvSaIS0_EE5beginEv @329
    _ZNKSt6vectorIPvSaIS0_EE8max_sizeEv @330
    _ZNKSt8_Rb_treeIPvS0_St9_IdentityIS0_ESt4lessIS0_ESaIS0_EE11_Alloc_nodeclIRKS0_EEPSt13_Rb_tree_nodeIS0_EOT_ @331
    _ZNKSt8_Rb_treeIPvS0_St9_IdentityIS0_ESt4lessIS0_ESaIS0_EE3endEv @332
    _ZNKSt8_Rb_treeIPvS0_St9_IdentityIS0_ESt4lessIS0_ESaIS0_EE5beginEv @333
    _ZNKSt8_Rb_treeISsSt4pairIKSsP14VertexPropertyIPvEESt10_Select1stIS6_ESt4lessISsESaIS6_EE4sizeEv @334
    _ZNKSt8_Rb_treeISsSt4pairIKSsP14VertexPropertyIPvEESt10_Select1stIS6_ESt4lessISsESaIS6_EE8key_compEv @335
    _ZNKSt8_Rb_treeImSt4pairIKmmESt10_Select1stIS2_ESt4lessImESaIS2_EE4sizeEv @336
    _ZNKSt8_Rb_treeImSt4pairIKmmESt10_Select1stIS2_ESt4lessImESaIS2_EE8key_compEv @337
    _ZNKSt9_IdentityIPvEclERKS0_ @338
    _ZNSaIP13TraversalStepEC1ERKS1_ @339
    _ZNSaIP13TraversalStepEC2ERKS1_ @340
    _ZNSaIP13TraversalStepEC2Ev @341
    _ZNSaIP13TraversalStepED1Ev @342
    _ZNSaIP13TraversalStepED2Ev @343
    _ZNSaIP4EdgeEC1ERKS1_ @344
    _ZNSaIP4EdgeEC2ERKS1_ @345
    _ZNSaIP4EdgeEC2Ev @346
    _ZNSaIP4EdgeED1Ev @347
    _ZNSaIP4EdgeED2Ev @348
    _ZNSaIP6VertexEC1ERKS1_ @349
    _ZNSaIP6VertexEC2ERKS1_ @350
    _ZNSaIP6VertexEC2Ev @351
    _ZNSaIP6VertexED1Ev @352
    _ZNSaIP6VertexED2Ev @353
    _ZNSaIP7BitEdgeEC1ERKS1_ @354
    _ZNSaIP7BitEdgeEC2ERKS1_ @355
    _ZNSaIP7BitEdgeEC2Ev @356
    _ZNSaIP7BitEdgeED1Ev @357
    _ZNSaIP7BitEdgeED2Ev @358
    _ZNSaIP9TraverserIPvEEC2Ev @359
    _ZNSaIP9TraverserIPvEED2Ev @360
    _ZNSaIPvEC1ERKS0_ @361
    _ZNSaIPvEC1Ev @362
    _ZNSaIPvEC2ERKS0_ @363
    _ZNSaIPvEC2Ev @364
    _ZNSaIPvED1Ev @365
    _ZNSaIPvED2Ev @366
    _ZNSaISsEC2Ev @367
    _ZNSaISsED2Ev @368
    _ZNSaISt10_List_nodeIPvEEC2Ev @369
    _ZNSaISt10_List_nodeIPvEED2Ev @370
    _ZNSaISt13_Rb_tree_nodeIPvEEC2Ev @371
    _ZNSaISt13_Rb_tree_nodeIPvEED2Ev @372
    _ZNSaISt13_Rb_tree_nodeISt4pairIKSsP14VertexPropertyIPvEEEEC2Ev @373
    _ZNSaISt13_Rb_tree_nodeISt4pairIKSsP14VertexPropertyIPvEEEED2Ev @374
    _ZNSaISt13_Rb_tree_nodeISt4pairIKSsPvEEEC2Ev @375
    _ZNSaISt13_Rb_tree_nodeISt4pairIKSsPvEEED2Ev @376
    _ZNSaISt13_Rb_tree_nodeISt4pairIKmmEEEC2Ev @377
    _ZNSaISt13_Rb_tree_nodeISt4pairIKmmEEED2Ev @378
    _ZNSt10_Head_baseILm0ERKSsLb0EE7_M_headERS2_ @379
    _ZNSt10_Head_baseILm0ERKSsLb0EEC2ES1_ @380
    _ZNSt10_Head_baseILm0ERKmLb0EE7_M_headERS2_ @381
    _ZNSt10_Head_baseILm0ERKmLb0EEC2ES1_ @382
    _ZNSt10_Iter_baseIN9__gnu_cxx17__normal_iteratorIPKP13TraversalStepSt6vectorIS3_SaIS3_EEEELb0EE7_S_baseES9_ @383
    _ZNSt10_Iter_baseIN9__gnu_cxx17__normal_iteratorIPKP13TraversalStepSt6vectorIS3_SaIS3_EEEELb1EE7_S_baseES9_ @384
    _ZNSt10_Iter_baseIN9__gnu_cxx17__normal_iteratorIPKP4EdgeSt6vectorIS3_SaIS3_EEEELb0EE7_S_baseES9_ @385
    _ZNSt10_Iter_baseIN9__gnu_cxx17__normal_iteratorIPKP4EdgeSt6vectorIS3_SaIS3_EEEELb1EE7_S_baseES9_ @386
    _ZNSt10_Iter_baseIN9__gnu_cxx17__normal_iteratorIPKP6VertexSt6vectorIS3_SaIS3_EEEELb0EE7_S_baseES9_ @387
    _ZNSt10_Iter_baseIN9__gnu_cxx17__normal_iteratorIPKP6VertexSt6vectorIS3_SaIS3_EEEELb1EE7_S_baseES9_ @388
    _ZNSt10_Iter_baseIN9__gnu_cxx17__normal_iteratorIPKP7BitEdgeSt6vectorIS3_SaIS3_EEEELb0EE7_S_baseES9_ @389
    _ZNSt10_Iter_baseIN9__gnu_cxx17__normal_iteratorIPKP7BitEdgeSt6vectorIS3_SaIS3_EEEELb1EE7_S_baseES9_ @390
    _ZNSt10_Iter_baseIN9__gnu_cxx17__normal_iteratorIPKPvSt6vectorIS2_SaIS2_EEEELb0EE7_S_baseES8_ @391
    _ZNSt10_Iter_baseIN9__gnu_cxx17__normal_iteratorIPKPvSt6vectorIS2_SaIS2_EEEELb1EE7_S_baseES8_ @392
    _ZNSt10_Iter_baseIN9__gnu_cxx17__normal_iteratorIPP9TraverserIPvESt6vectorIS5_SaIS5_EEEELb0EE7_S_baseESA_ @393
    _ZNSt10_Iter_baseIN9__gnu_cxx17__normal_iteratorIPP9TraverserIPvESt6vectorIS5_SaIS5_EEEELb1EE7_S_baseESA_ @394
    _ZNSt10_Iter_baseIN9__gnu_cxx17__normal_iteratorIPPvSt6vectorIS2_SaIS2_EEEELb0EE7_S_baseES7_ @395
    _ZNSt10_Iter_baseIN9__gnu_cxx17__normal_iteratorIPPvSt6vectorIS2_SaIS2_EEEELb1EE7_S_baseES7_ @396
    _ZNSt10_Iter_baseIPKPvLb0EE7_S_baseES2_ @397
    _ZNSt10_Iter_baseIPP13TraversalStepLb0EE7_S_baseES2_ @398
    _ZNSt10_Iter_baseIPP4EdgeLb0EE7_S_baseES2_ @399
    _ZNSt10_Iter_baseIPP6VertexLb0EE7_S_baseES2_ @400
    _ZNSt10_Iter_baseIPP7BitEdgeLb0EE7_S_baseES2_ @401
    _ZNSt10_Iter_baseIPP9TraverserIPvELb0EE7_S_baseES4_ @402
    _ZNSt10_Iter_baseIPPvLb0EE7_S_baseES1_ @403
    _ZNSt10_Iter_baseISt13move_iteratorIPP13TraversalStepELb1EE7_S_baseES4_ @404
    _ZNSt10_Iter_baseISt13move_iteratorIPP6VertexELb1EE7_S_baseES4_ @405
    _ZNSt10_Iter_baseISt13move_iteratorIPP7BitEdgeELb1EE7_S_baseES4_ @406
    _ZNSt10_Iter_baseISt13move_iteratorIPP9TraverserIPvEELb1EE7_S_baseES6_ @407
    _ZNSt10_Iter_baseISt13move_iteratorIPPvELb1EE7_S_baseES3_ @408
    _ZNSt10_Iter_baseISt23_Rb_tree_const_iteratorIPvELb0EE7_S_baseES2_ @409
    _ZNSt10_List_baseIPvSaIS0_EE10_List_implC1Ev @410
    _ZNSt10_List_baseIPvSaIS0_EE10_List_implD1Ev @411
    _ZNSt10_List_baseIPvSaIS0_EE11_M_put_nodeEPSt10_List_nodeIS0_E @412
    _ZNSt10_List_baseIPvSaIS0_EE11_M_set_sizeEm @413
    _ZNSt10_List_baseIPvSaIS0_EE21_M_get_Node_allocatorEv @414
    _ZNSt10_List_baseIPvSaIS0_EE7_M_initEv @415
    _ZNSt10_List_baseIPvSaIS0_EE8_M_clearEv @416
    _ZNSt10_List_baseIPvSaIS0_EEC2Ev @417
    _ZNSt10_List_baseIPvSaIS0_EED2Ev @418
    _ZNSt11_Tuple_implILm0EJRKSsEE7_M_headERS2_ @419
    _ZNSt11_Tuple_implILm0EJRKSsEEC2EOS2_ @420
    _ZNSt11_Tuple_implILm0EJRKSsEEC2ES1_ @421
    _ZNSt11_Tuple_implILm0EJRKmEE7_M_headERS2_ @422
    _ZNSt11_Tuple_implILm0EJRKmEEC2EOS2_ @423
    _ZNSt11_Tuple_implILm0EJRKmEEC2ES1_ @424
    _ZNSt11__copy_moveILb0ELb0ESt26bidirectional_iterator_tagE8__copy_mISt23_Rb_tree_const_iteratorIPvEPS4_EET0_T_S8_S7_ @425
    _ZNSt11__copy_moveILb0ELb1ESt26random_access_iterator_tagE8__copy_mIP13TraversalStepEEPT_PKS5_S8_S6_ @426
    _ZNSt11__copy_moveILb0ELb1ESt26random_access_iterator_tagE8__copy_mIP4EdgeEEPT_PKS5_S8_S6_ @427
    _ZNSt11__copy_moveILb0ELb1ESt26random_access_iterator_tagE8__copy_mIP6VertexEEPT_PKS5_S8_S6_ @428
    _ZNSt11__copy_moveILb0ELb1ESt26random_access_iterator_tagE8__copy_mIP7BitEdgeEEPT_PKS5_S8_S6_ @429
    _ZNSt11__copy_moveILb0ELb1ESt26random_access_iterator_tagE8__copy_mIPvEEPT_PKS4_S7_S5_ @430
    _ZNSt11__copy_moveILb1ELb1ESt26random_access_iterator_tagE8__copy_mIP13TraversalStepEEPT_PKS5_S8_S6_ @431
    _ZNSt11__copy_moveILb1ELb1ESt26random_access_iterator_tagE8__copy_mIP6VertexEEPT_PKS5_S8_S6_ @432
    _ZNSt11__copy_moveILb1ELb1ESt26random_access_iterator_tagE8__copy_mIP7BitEdgeEEPT_PKS5_S8_S6_ @433
    _ZNSt11__copy_moveILb1ELb1ESt26random_access_iterator_tagE8__copy_mIP9TraverserIPvEEEPT_PKS7_SA_S8_ @434
    _ZNSt11__copy_moveILb1ELb1ESt26random_access_iterator_tagE8__copy_mIPvEEPT_PKS4_S7_S5_ @435
    _ZNSt12_Destroy_auxILb0EE9__destroyIPSsEEvT_S3_ @436
    _ZNSt12_Destroy_auxILb1EE9__destroyIPP13TraversalStepEEvT_S5_ @437
    _ZNSt12_Destroy_auxILb1EE9__destroyIPP6VertexEEvT_S5_ @438
    _ZNSt12_Destroy_auxILb1EE9__destroyIPP7BitEdgeEEvT_S5_ @439
    _ZNSt12_Destroy_auxILb1EE9__destroyIPP9TraverserIPvEEEvT_S7_ @440
    _ZNSt12_Destroy_auxILb1EE9__destroyIPPvEEvT_S4_ @441
    _ZNSt12_Vector_baseIP13TraversalStepSaIS1_EE11_M_allocateEm @442
    _ZNSt12_Vector_baseIP13TraversalStepSaIS1_EE12_Vector_implC1ERKS2_ @443
    _ZNSt12_Vector_baseIP13TraversalStepSaIS1_EE12_Vector_implC1Ev @444
    _ZNSt12_Vector_baseIP13TraversalStepSaIS1_EE12_Vector_implD1Ev @445
    _ZNSt12_Vector_baseIP13TraversalStepSaIS1_EE13_M_deallocateEPS1_m @446
    _ZNSt12_Vector_baseIP13TraversalStepSaIS1_EE17_M_create_storageEm @447
    _ZNSt12_Vector_baseIP13TraversalStepSaIS1_EE19_M_get_Tp_allocatorEv @448
    _ZNSt12_Vector_baseIP13TraversalStepSaIS1_EEC2EmRKS2_ @449
    _ZNSt12_Vector_baseIP13TraversalStepSaIS1_EEC2Ev @450
    _ZNSt12_Vector_baseIP13TraversalStepSaIS1_EED2Ev @451
    _ZNSt12_Vector_baseIP4EdgeSaIS1_EE11_M_allocateEm @452
    _ZNSt12_Vector_baseIP4EdgeSaIS1_EE12_Vector_implC1ERKS2_ @453
    _ZNSt12_Vector_baseIP4EdgeSaIS1_EE12_Vector_implC1Ev @454
    _ZNSt12_Vector_baseIP4EdgeSaIS1_EE12_Vector_implD1Ev @455
    _ZNSt12_Vector_baseIP4EdgeSaIS1_EE13_M_deallocateEPS1_m @456
    _ZNSt12_Vector_baseIP4EdgeSaIS1_EE17_M_create_storageEm @457
    _ZNSt12_Vector_baseIP4EdgeSaIS1_EE19_M_get_Tp_allocatorEv @458
    _ZNSt12_Vector_baseIP4EdgeSaIS1_EEC2EmRKS2_ @459
    _ZNSt12_Vector_baseIP4EdgeSaIS1_EEC2Ev @460
    _ZNSt12_Vector_baseIP4EdgeSaIS1_EED2Ev @461
    _ZNSt12_Vector_baseIP6VertexSaIS1_EE11_M_allocateEm @462
    _ZNSt12_Vector_baseIP6VertexSaIS1_EE12_Vector_implC1ERKS2_ @463
    _ZNSt12_Vector_baseIP6VertexSaIS1_EE12_Vector_implC1Ev @464
    _ZNSt12_Vector_baseIP6VertexSaIS1_EE12_Vector_implD1Ev @465
    _ZNSt12_Vector_baseIP6VertexSaIS1_EE13_M_deallocateEPS1_m @466
    _ZNSt12_Vector_baseIP6VertexSaIS1_EE17_M_create_storageEm @467
    _ZNSt12_Vector_baseIP6VertexSaIS1_EE19_M_get_Tp_allocatorEv @468
    _ZNSt12_Vector_baseIP6VertexSaIS1_EEC2EmRKS2_ @469
    _ZNSt12_Vector_baseIP6VertexSaIS1_EEC2Ev @470
    _ZNSt12_Vector_baseIP6VertexSaIS1_EED2Ev @471
    _ZNSt12_Vector_baseIP7BitEdgeSaIS1_EE11_M_allocateEm @472
    _ZNSt12_Vector_baseIP7BitEdgeSaIS1_EE12_Vector_impl12_M_swap_dataERS4_ @473
    _ZNSt12_Vector_baseIP7BitEdgeSaIS1_EE12_Vector_implC1EOS2_ @474
    _ZNSt12_Vector_baseIP7BitEdgeSaIS1_EE12_Vector_implC1ERKS2_ @475
    _ZNSt12_Vector_baseIP7BitEdgeSaIS1_EE12_Vector_implC1Ev @476
    _ZNSt12_Vector_baseIP7BitEdgeSaIS1_EE12_Vector_implD1Ev @477
    _ZNSt12_Vector_baseIP7BitEdgeSaIS1_EE13_M_deallocateEPS1_m @478
    _ZNSt12_Vector_baseIP7BitEdgeSaIS1_EE17_M_create_storageEm @479
    _ZNSt12_Vector_baseIP7BitEdgeSaIS1_EE19_M_get_Tp_allocatorEv @480
    _ZNSt12_Vector_baseIP7BitEdgeSaIS1_EEC2EOS3_ @481
    _ZNSt12_Vector_baseIP7BitEdgeSaIS1_EEC2EmRKS2_ @482
    _ZNSt12_Vector_baseIP7BitEdgeSaIS1_EEC2Ev @483
    _ZNSt12_Vector_baseIP7BitEdgeSaIS1_EED2Ev @484
    _ZNSt12_Vector_baseIP9TraverserIPvESaIS3_EE11_M_allocateEm @485
    _ZNSt12_Vector_baseIP9TraverserIPvESaIS3_EE12_Vector_implC1Ev @486
    _ZNSt12_Vector_baseIP9TraverserIPvESaIS3_EE12_Vector_implD1Ev @487
    _ZNSt12_Vector_baseIP9TraverserIPvESaIS3_EE13_M_deallocateEPS3_m @488
    _ZNSt12_Vector_baseIP9TraverserIPvESaIS3_EE19_M_get_Tp_allocatorEv @489
    _ZNSt12_Vector_baseIP9TraverserIPvESaIS3_EEC2Ev @490
    _ZNSt12_Vector_baseIP9TraverserIPvESaIS3_EED2Ev @491
    _ZNSt12_Vector_baseIPvSaIS0_EE11_M_allocateEm @492
    _ZNSt12_Vector_baseIPvSaIS0_EE12_Vector_implC1ERKS1_ @493
    _ZNSt12_Vector_baseIPvSaIS0_EE12_Vector_implC1Ev @494
    _ZNSt12_Vector_baseIPvSaIS0_EE12_Vector_implD1Ev @495
    _ZNSt12_Vector_baseIPvSaIS0_EE13_M_deallocateEPS0_m @496
    _ZNSt12_Vector_baseIPvSaIS0_EE17_M_create_storageEm @497
    _ZNSt12_Vector_baseIPvSaIS0_EE19_M_get_Tp_allocatorEv @498
    _ZNSt12_Vector_baseIPvSaIS0_EEC2ERKS1_ @499
    _ZNSt12_Vector_baseIPvSaIS0_EEC2EmRKS1_ @500
    _ZNSt12_Vector_baseIPvSaIS0_EEC2Ev @501
    _ZNSt12_Vector_baseIPvSaIS0_EED2Ev @502
    _ZNSt12_Vector_baseISsSaISsEE12_Vector_implC1Ev @503
    _ZNSt12_Vector_baseISsSaISsEE12_Vector_implD1Ev @504
    _ZNSt12_Vector_baseISsSaISsEE13_M_deallocateEPSsm @505
    _ZNSt12_Vector_baseISsSaISsEE19_M_get_Tp_allocatorEv @506
    _ZNSt12_Vector_baseISsSaISsEEC2Ev @507
    _ZNSt12_Vector_baseISsSaISsEED2Ev @508
    _ZNSt12__mutex_baseC2Ev @509
    _ZNSt13_Rb_tree_nodeIPvE9_M_valptrEv @510
    _ZNSt13_Rb_tree_nodeIPvEC1Ev @511
    _ZNSt13_Rb_tree_nodeISt4pairIKSsP14VertexPropertyIPvEEE9_M_valptrEv @512
    _ZNSt13_Rb_tree_nodeISt4pairIKSsP14VertexPropertyIPvEEEC1Ev @513
    _ZNSt13_Rb_tree_nodeISt4pairIKSsPvEE9_M_valptrEv @514
    _ZNSt13_Rb_tree_nodeISt4pairIKmmEE9_M_valptrEv @515
    _ZNSt13_Rb_tree_nodeISt4pairIKmmEEC1Ev @516
    _ZNSt13move_iteratorIPP13TraversalStepEC1ES2_ @517
    _ZNSt13move_iteratorIPP6VertexEC1ES2_ @518
    _ZNSt13move_iteratorIPP7BitEdgeEC1ES2_ @519
    _ZNSt13move_iteratorIPP9TraverserIPvEEC1ES4_ @520
    _ZNSt13move_iteratorIPPvEC1ES1_ @521
    _ZNSt16allocator_traitsISaIP13TraversalStepEE10deallocateERS2_PS1_m @522
    _ZNSt16allocator_traitsISaIP13TraversalStepEE37select_on_container_copy_constructionERKS2_ @523
    _ZNSt16allocator_traitsISaIP13TraversalStepEE7destroyIS1_EEvRS2_PT_ @524
    _ZNSt16allocator_traitsISaIP13TraversalStepEE8allocateERS2_m @525
    _ZNSt16allocator_traitsISaIP13TraversalStepEE8max_sizeERKS2_ @526
    _ZNSt16allocator_traitsISaIP13TraversalStepEE9constructIS1_JP10VertexStepEEEvRS2_PT_DpOT0_ @527
    _ZNSt16allocator_traitsISaIP13TraversalStepEE9constructIS1_JRKS1_EEEvRS2_PT_DpOT0_ @528
    _ZNSt16allocator_traitsISaIP13TraversalStepEE9constructIS1_JS1_EEEvRS2_PT_DpOT0_ @529
    _ZNSt16allocator_traitsISaIP4EdgeEE10deallocateERS2_PS1_m @530
    _ZNSt16allocator_traitsISaIP4EdgeEE37select_on_container_copy_constructionERKS2_ @531
    _ZNSt16allocator_traitsISaIP4EdgeEE8allocateERS2_m @532
    _ZNSt16allocator_traitsISaIP6VertexEE10deallocateERS2_PS1_m @533
    _ZNSt16allocator_traitsISaIP6VertexEE37select_on_container_copy_constructionERKS2_ @534
    _ZNSt16allocator_traitsISaIP6VertexEE7destroyIS1_EEvRS2_PT_ @535
    _ZNSt16allocator_traitsISaIP6VertexEE8allocateERS2_m @536
    _ZNSt16allocator_traitsISaIP6VertexEE8max_sizeERKS2_ @537
    _ZNSt16allocator_traitsISaIP6VertexEE9constructIS1_JRKS1_EEEvRS2_PT_DpOT0_ @538
    _ZNSt16allocator_traitsISaIP7BitEdgeEE10deallocateERS2_PS1_m @539
    _ZNSt16allocator_traitsISaIP7BitEdgeEE37select_on_container_copy_constructionERKS2_ @540
    _ZNSt16allocator_traitsISaIP7BitEdgeEE7destroyIS1_EEvRS2_PT_ @541
    _ZNSt16allocator_traitsISaIP7BitEdgeEE8allocateERS2_m @542
    _ZNSt16allocator_traitsISaIP7BitEdgeEE8max_sizeERKS2_ @543
    _ZNSt16allocator_traitsISaIP7BitEdgeEE9constructIS1_JRKS1_EEEvRS2_PT_DpOT0_ @544
    _ZNSt16allocator_traitsISaIP9TraverserIPvEEE10deallocateERS4_PS3_m @545
    _ZNSt16allocator_traitsISaIP9TraverserIPvEEE7destroyIS3_EEvRS4_PT_ @546
    _ZNSt16allocator_traitsISaIP9TraverserIPvEEE8allocateERS4_m @547
    _ZNSt16allocator_traitsISaIP9TraverserIPvEEE8max_sizeERKS4_ @548
    _ZNSt16allocator_traitsISaIP9TraverserIPvEEE9constructIS3_JS3_EEEvRS4_PT_DpOT0_ @549
    _ZNSt16allocator_traitsISaIPvEE10deallocateERS1_PS0_m @550
    _ZNSt16allocator_traitsISaIPvEE37select_on_container_copy_constructionERKS1_ @551
    _ZNSt16allocator_traitsISaIPvEE7destroyIS0_EEvRS1_PT_ @552
    _ZNSt16allocator_traitsISaIPvEE8allocateERS1_m @553
    _ZNSt16allocator_traitsISaIPvEE8max_sizeERKS1_ @554
    _ZNSt16allocator_traitsISaIPvEE9constructIS0_JRKS0_EEEvRS1_PT_DpOT0_ @555
    _ZNSt16allocator_traitsISaISsEE10deallocateERS0_PSsm @556
    _ZNSt16allocator_traitsISaISt13_Rb_tree_nodeIPvEEE10deallocateERS3_PS2_m @557
    _ZNSt16allocator_traitsISaISt13_Rb_tree_nodeIPvEEE7destroyIS1_EEvRS3_PT_ @558
    _ZNSt16allocator_traitsISaISt13_Rb_tree_nodeIPvEEE8allocateERS3_m @559
    _ZNSt16allocator_traitsISaISt13_Rb_tree_nodeIPvEEE9constructIS1_JRKS1_EEEvRS3_PT_DpOT0_ @560
    _ZNSt16allocator_traitsISaISt13_Rb_tree_nodeISt4pairIKSsP14VertexPropertyIPvEEEEE10deallocateERS9_PS8_m @561
    _ZNSt16allocator_traitsISaISt13_Rb_tree_nodeISt4pairIKSsP14VertexPropertyIPvEEEEE7destroyIS7_EEvRS9_PT_ @562
    _ZNSt16allocator_traitsISaISt13_Rb_tree_nodeISt4pairIKSsP14VertexPropertyIPvEEEEE8allocateERS9_m @563
    _ZNSt16allocator_traitsISaISt13_Rb_tree_nodeISt4pairIKSsP14VertexPropertyIPvEEEEE9constructIS7_JRKSt21piecewise_construct_tSt5tupleIJRS2_EESF_IJEEEEEvRS9_PT_DpOT0_ @564
    _ZNSt16allocator_traitsISaISt13_Rb_tree_nodeISt4pairIKSsPvEEEE10deallocateERS6_PS5_m @565
    _ZNSt16allocator_traitsISaISt13_Rb_tree_nodeISt4pairIKSsPvEEEE7destroyIS4_EEvRS6_PT_ @566
    _ZNSt16allocator_traitsISaISt13_Rb_tree_nodeISt4pairIKmmEEEE10deallocateERS5_PS4_m @567
    _ZNSt16allocator_traitsISaISt13_Rb_tree_nodeISt4pairIKmmEEEE7destroyIS3_EEvRS5_PT_ @568
    _ZNSt16allocator_traitsISaISt13_Rb_tree_nodeISt4pairIKmmEEEE8allocateERS5_m @569
    _ZNSt16allocator_traitsISaISt13_Rb_tree_nodeISt4pairIKmmEEEE9constructIS3_JRKSt21piecewise_construct_tSt5tupleIJRS2_EESB_IJEEEEEvRS5_PT_DpOT0_ @570
    _ZNSt17_Rb_tree_iteratorIPvEC1EPSt18_Rb_tree_node_base @571
    _ZNSt17_Rb_tree_iteratorIPvEmmEv @572
    _ZNSt17_Rb_tree_iteratorISt4pairIKSsP14VertexPropertyIPvEEEC1EPSt18_Rb_tree_node_base @573
    _ZNSt17_Rb_tree_iteratorISt4pairIKSsP14VertexPropertyIPvEEEmmEv @574
    _ZNSt17_Rb_tree_iteratorISt4pairIKSsP14VertexPropertyIPvEEEppEv @575
    _ZNSt17_Rb_tree_iteratorISt4pairIKmmEEC1EPSt18_Rb_tree_node_base @576
    _ZNSt17_Rb_tree_iteratorISt4pairIKmmEEmmEv @577
    _ZNSt17_Rb_tree_iteratorISt4pairIKmmEEppEv @578
    _ZNSt18_Rb_tree_node_baseC2Ev @579
    _ZNSt20__copy_move_backwardILb1ELb1ESt26random_access_iterator_tagE13__copy_move_bIP13TraversalStepEEPT_PKS5_S8_S6_ @580
    _ZNSt20__uninitialized_copyILb1EE13__uninit_copyIN9__gnu_cxx17__normal_iteratorIPKP13TraversalStepSt6vectorIS5_SaIS5_EEEEPS5_EET0_T_SE_SD_ @581
    _ZNSt20__uninitialized_copyILb1EE13__uninit_copyIN9__gnu_cxx17__normal_iteratorIPKP4EdgeSt6vectorIS5_SaIS5_EEEEPS5_EET0_T_SE_SD_ @582
    _ZNSt20__uninitialized_copyILb1EE13__uninit_copyIN9__gnu_cxx17__normal_iteratorIPKP6VertexSt6vectorIS5_SaIS5_EEEEPS5_EET0_T_SE_SD_ @583
    _ZNSt20__uninitialized_copyILb1EE13__uninit_copyIN9__gnu_cxx17__normal_iteratorIPKP7BitEdgeSt6vectorIS5_SaIS5_EEEEPS5_EET0_T_SE_SD_ @584
    _ZNSt20__uninitialized_copyILb1EE13__uninit_copyIN9__gnu_cxx17__normal_iteratorIPKPvSt6vectorIS4_SaIS4_EEEEPS4_EET0_T_SD_SC_ @585
    _ZNSt20__uninitialized_copyILb1EE13__uninit_copyIN9__gnu_cxx17__normal_iteratorIPPvSt6vectorIS4_SaIS4_EEEES5_EET0_T_SB_SA_ @586
    _ZNSt20__uninitialized_copyILb1EE13__uninit_copyIPKPvPS2_EET0_T_S7_S6_ @587
    _ZNSt20__uninitialized_copyILb1EE13__uninit_copyISt13move_iteratorIPP13TraversalStepES5_EET0_T_S8_S7_ @588
    _ZNSt20__uninitialized_copyILb1EE13__uninit_copyISt13move_iteratorIPP6VertexES5_EET0_T_S8_S7_ @589
    _ZNSt20__uninitialized_copyILb1EE13__uninit_copyISt13move_iteratorIPP7BitEdgeES5_EET0_T_S8_S7_ @590
    _ZNSt20__uninitialized_copyILb1EE13__uninit_copyISt13move_iteratorIPP9TraverserIPvEES7_EET0_T_SA_S9_ @591
    _ZNSt20__uninitialized_copyILb1EE13__uninit_copyISt13move_iteratorIPPvES4_EET0_T_S7_S6_ @592
    _ZNSt20__uninitialized_copyILb1EE13__uninit_copyISt23_Rb_tree_const_iteratorIPvEPS3_EET0_T_S7_S6_ @593
    _ZNSt23_Rb_tree_const_iteratorIPvEC1EPKSt18_Rb_tree_node_base @594
    _ZNSt23_Rb_tree_const_iteratorIPvEC1ERKSt17_Rb_tree_iteratorIS0_E @595
    _ZNSt23_Rb_tree_const_iteratorIPvEppEv @596
    _ZNSt23_Rb_tree_const_iteratorISt4pairIKSsP14VertexPropertyIPvEEEC1ERKSt17_Rb_tree_iteratorIS6_E @597
    _ZNSt23_Rb_tree_const_iteratorISt4pairIKmmEEC1ERKSt17_Rb_tree_iteratorIS2_E @598
    _ZNSt3mapISsP14VertexPropertyIPvESt4lessISsESaISt4pairIKSsS3_EEE11lower_boundERS7_ @599
    _ZNSt3mapISsP14VertexPropertyIPvESt4lessISsESaISt4pairIKSsS3_EEE3endEv @600
    _ZNSt3mapISsP14VertexPropertyIPvESt4lessISsESaISt4pairIKSsS3_EEE4findERS7_ @601
    _ZNSt3mapISsP14VertexPropertyIPvESt4lessISsESaISt4pairIKSsS3_EEEC1Ev @602
    _ZNSt3mapISsP14VertexPropertyIPvESt4lessISsESaISt4pairIKSsS3_EEED1Ev @603
    _ZNSt3mapISsP14VertexPropertyIPvESt4lessISsESaISt4pairIKSsS3_EEEixERS7_ @604
    _ZNSt3mapISsPvSt4lessISsESaISt4pairIKSsS0_EEEC1Ev @605
    _ZNSt3mapISsPvSt4lessISsESaISt4pairIKSsS0_EEED1Ev @606
    _ZNSt3mapImmSt4lessImESaISt4pairIKmmEEE11lower_boundERS3_ @607
    _ZNSt3mapImmSt4lessImESaISt4pairIKmmEEE3endEv @608
    _ZNSt3mapImmSt4lessImESaISt4pairIKmmEEE4findERS3_ @609
    _ZNSt3mapImmSt4lessImESaISt4pairIKmmEEEC1Ev @610
    _ZNSt3mapImmSt4lessImESaISt4pairIKmmEEED1Ev @611
    _ZNSt3mapImmSt4lessImESaISt4pairIKmmEEEixERS3_ @612
    _ZNSt3setIPvSt4lessIS0_ESaIS0_EE6insertERKS0_ @613
    _ZNSt3setIPvSt4lessIS0_ESaIS0_EEC1Ev @614
    _ZNSt3setIPvSt4lessIS0_ESaIS0_EED1Ev @615
    _ZNSt4listIPvSaIS0_EEC1Ev @616
    _ZNSt4listIPvSaIS0_EED1Ev @617
    _ZNSt4pairIKSsP14VertexPropertyIPvEEC1IJRS0_EJEEESt21piecewise_construct_tSt5tupleIJDpT_EES9_IJDpT0_EE @618
    _ZNSt4pairIKSsP14VertexPropertyIPvEEC1IJRS0_EJLm0EEJEJEEERSt5tupleIJDpT_EERS8_IJDpT1_EESt12_Index_tupleIJXspT0_EEESH_IJXspT2_EEE @619
    _ZNSt4pairIKSsP14VertexPropertyIPvEED1Ev @620
    _ZNSt4pairIKSsPvED1Ev @621
    _ZNSt4pairIKmmEC1IJRS0_EJEEESt21piecewise_construct_tSt5tupleIJDpT_EES5_IJDpT0_EE @622
    _ZNSt4pairIKmmEC1IJRS0_EJLm0EEJEJEEERSt5tupleIJDpT_EERS4_IJDpT1_EESt12_Index_tupleIJXspT0_EEESD_IJXspT2_EEE @623
    _ZNSt4pairIPSt18_Rb_tree_node_baseS1_EC1IRPSt13_Rb_tree_nodeIPvES8_vEEOT_OT0_ @624
    _ZNSt4pairIPSt18_Rb_tree_node_baseS1_EC1IRPSt13_Rb_tree_nodeIS_IKSsP14VertexPropertyIPvEEESD_vEEOT_OT0_ @625
    _ZNSt4pairIPSt18_Rb_tree_node_baseS1_EC1IRPSt13_Rb_tree_nodeIS_IKmmEES9_vEEOT_OT0_ @626
    _ZNSt4pairIPSt18_Rb_tree_node_baseS1_EC1IRS1_S4_vEEOT_OT0_ @627
    _ZNSt4pairIPSt18_Rb_tree_node_baseS1_EC1IRS1_vEEOT_RKS1_ @628
    _ZNSt4pairIPSt18_Rb_tree_node_baseS1_EC1IRS1_vEERKS1_OT_ @629
    _ZNSt4pairISt17_Rb_tree_iteratorIPvEbEC1IS2_bvEEOT_OT0_ @630
    _ZNSt4pairISt23_Rb_tree_const_iteratorIPvEbEC1IRSt17_Rb_tree_iteratorIS1_ERbvEEOT_OT0_ @631
    _ZNSt5mutex4lockEv @632
    _ZNSt5mutex6unlockEv @633
    _ZNSt5mutexC1Ev @634
    _ZNSt5tupleIJRKSsEEC1EOS2_ @635
    _ZNSt5tupleIJRKSsEEC1ES1_ @636
    _ZNSt5tupleIJRKmEEC1EOS2_ @637
    _ZNSt5tupleIJRKmEEC1ES1_ @638
    _ZNSt6vectorIP13TraversalStepSaIS1_EE13_M_insert_auxIJP10VertexStepEEEvN9__gnu_cxx17__normal_iteratorIPS1_S3_EEDpOT_ @639
    _ZNSt6vectorIP13TraversalStepSaIS1_EE19_M_emplace_back_auxIJRKS1_EEEvDpOT_ @640
    _ZNSt6vectorIP13TraversalStepSaIS1_EE3endEv @641
    _ZNSt6vectorIP13TraversalStepSaIS1_EE5beginEv @642
    _ZNSt6vectorIP13TraversalStepSaIS1_EE7emplaceIJP10VertexStepEEEN9__gnu_cxx17__normal_iteratorIPS1_S3_EENS8_IPKS1_S3_EEDpOT_ @643
    _ZNSt6vectorIP13TraversalStepSaIS1_EE9push_backERKS1_ @644
    _ZNSt6vectorIP13TraversalStepSaIS1_EEC1ERKS3_ @645
    _ZNSt6vectorIP13TraversalStepSaIS1_EEC1Ev @646
    _ZNSt6vectorIP13TraversalStepSaIS1_EED1Ev @647
    _ZNSt6vectorIP13TraversalStepSaIS1_EEixEm @648
    _ZNSt6vectorIP4EdgeSaIS1_EEC1ERKS3_ @649
    _ZNSt6vectorIP4EdgeSaIS1_EEC1Ev @650
    _ZNSt6vectorIP6VertexSaIS1_EE19_M_emplace_back_auxIJRKS1_EEEvDpOT_ @651
    _ZNSt6vectorIP6VertexSaIS1_EE3endEv @652
    _ZNSt6vectorIP6VertexSaIS1_EE4backEv @653
    _ZNSt6vectorIP6VertexSaIS1_EE5beginEv @654
    _ZNSt6vectorIP6VertexSaIS1_EE9push_backERKS1_ @655
    _ZNSt6vectorIP6VertexSaIS1_EEC1ERKS3_ @656
    _ZNSt6vectorIP6VertexSaIS1_EEC1Ev @657
    _ZNSt6vectorIP6VertexSaIS1_EED1Ev @658
    _ZNSt6vectorIP7BitEdgeSaIS1_EE19_M_emplace_back_auxIJRKS1_EEEvDpOT_ @659
    _ZNSt6vectorIP7BitEdgeSaIS1_EE3endEv @660
    _ZNSt6vectorIP7BitEdgeSaIS1_EE5beginEv @661
    _ZNSt6vectorIP7BitEdgeSaIS1_EE9push_backERKS1_ @662
    _ZNSt6vectorIP7BitEdgeSaIS1_EEC1EOS3_ @663
    _ZNSt6vectorIP7BitEdgeSaIS1_EEC1ERKS3_ @664
    _ZNSt6vectorIP7BitEdgeSaIS1_EEC1Ev @665
    _ZNSt6vectorIP7BitEdgeSaIS1_EED1Ev @666
    _ZNSt6vectorIP9TraverserIPvESaIS3_EE12emplace_backIJS3_EEEvDpOT_ @667
    _ZNSt6vectorIP9TraverserIPvESaIS3_EE19_M_emplace_back_auxIJS3_EEEvDpOT_ @668
    _ZNSt6vectorIP9TraverserIPvESaIS3_EE2atEm @669
    _ZNSt6vectorIP9TraverserIPvESaIS3_EE3endEv @670
    _ZNSt6vectorIP9TraverserIPvESaIS3_EE5beginEv @671
    _ZNSt6vectorIP9TraverserIPvESaIS3_EE5eraseEN9__gnu_cxx17__normal_iteratorIPKS3_S5_EE @672
    _ZNSt6vectorIP9TraverserIPvESaIS3_EE8_M_eraseEN9__gnu_cxx17__normal_iteratorIPS3_S5_EE @673
    _ZNSt6vectorIP9TraverserIPvESaIS3_EE9push_backEOS3_ @674
    _ZNSt6vectorIP9TraverserIPvESaIS3_EEC1Ev @675
    _ZNSt6vectorIP9TraverserIPvESaIS3_EED1Ev @676
    _ZNSt6vectorIP9TraverserIPvESaIS3_EEixEm @677
    _ZNSt6vectorIPvSaIS0_EE19_M_emplace_back_auxIJRKS0_EEEvDpOT_ @678
    _ZNSt6vectorIPvSaIS0_EE19_M_range_initializeIN9__gnu_cxx17__normal_iteratorIPS0_S2_EEEEvT_S8_St20forward_iterator_tag @679
    _ZNSt6vectorIPvSaIS0_EE19_M_range_initializeIPKS0_EEvT_S6_St20forward_iterator_tag @680
    _ZNSt6vectorIPvSaIS0_EE19_M_range_initializeISt23_Rb_tree_const_iteratorIS0_EEEvT_S6_St20forward_iterator_tag @681
    _ZNSt6vectorIPvSaIS0_EE22_M_initialize_dispatchIN9__gnu_cxx17__normal_iteratorIPS0_S2_EEEEvT_S8_St12__false_type @682
    _ZNSt6vectorIPvSaIS0_EE22_M_initialize_dispatchISt23_Rb_tree_const_iteratorIS0_EEEvT_S6_St12__false_type @683
    _ZNSt6vectorIPvSaIS0_EE2atEm @684
    _ZNSt6vectorIPvSaIS0_EE3endEv @685
    _ZNSt6vectorIPvSaIS0_EE5beginEv @686
    _ZNSt6vectorIPvSaIS0_EE9push_backERKS0_ @687
    _ZNSt6vectorIPvSaIS0_EEC1ERKS2_ @688
    _ZNSt6vectorIPvSaIS0_EEC1ESt16initializer_listIS0_ERKS1_ @689
    _ZNSt6vectorIPvSaIS0_EEC1Ev @690
    _ZNSt6vectorIPvSaIS0_EEC1IN9__gnu_cxx17__normal_iteratorIPS0_S2_EEvEET_S8_RKS1_ @691
    _ZNSt6vectorIPvSaIS0_EEC1ISt23_Rb_tree_const_iteratorIS0_EvEET_S6_RKS1_ @692
    _ZNSt6vectorIPvSaIS0_EED1Ev @693
    _ZNSt6vectorIPvSaIS0_EEixEm @694
    _ZNSt6vectorISsSaISsEEC1Ev @695
    _ZNSt6vectorISsSaISsEED1Ev @696
    _ZNSt8_Rb_treeIPvS0_St9_IdentityIS0_ESt4lessIS0_ESaIS0_EE10_M_insert_IRKS0_NS6_11_Alloc_nodeEEESt17_Rb_tree_iteratorIS0_EPSt18_Rb_tree_node_baseSE_OT_RT0_ @697
    _ZNSt8_Rb_treeIPvS0_St9_IdentityIS0_ESt4lessIS0_ESaIS0_EE11_Alloc_nodeC1ERS6_ @698
    _ZNSt8_Rb_treeIPvS0_St9_IdentityIS0_ESt4lessIS0_ESaIS0_EE11_M_get_nodeEv @699
    _ZNSt8_Rb_treeIPvS0_St9_IdentityIS0_ESt4lessIS0_ESaIS0_EE11_M_put_nodeEPSt13_Rb_tree_nodeIS0_E @700
    _ZNSt8_Rb_treeIPvS0_St9_IdentityIS0_ESt4lessIS0_ESaIS0_EE12_M_drop_nodeEPSt13_Rb_tree_nodeIS0_E @701
    _ZNSt8_Rb_treeIPvS0_St9_IdentityIS0_ESt4lessIS0_ESaIS0_EE13_Rb_tree_implIS4_Lb1EE13_M_initializeEv @702
    _ZNSt8_Rb_treeIPvS0_St9_IdentityIS0_ESt4lessIS0_ESaIS0_EE13_Rb_tree_implIS4_Lb1EEC1Ev @703
    _ZNSt8_Rb_treeIPvS0_St9_IdentityIS0_ESt4lessIS0_ESaIS0_EE13_Rb_tree_implIS4_Lb1EED1Ev @704
    _ZNSt8_Rb_treeIPvS0_St9_IdentityIS0_ESt4lessIS0_ESaIS0_EE14_M_create_nodeIJRKS0_EEEPSt13_Rb_tree_nodeIS0_EDpOT_ @705
    _ZNSt8_Rb_treeIPvS0_St9_IdentityIS0_ESt4lessIS0_ESaIS0_EE15_M_destroy_nodeEPSt13_Rb_tree_nodeIS0_E @706
    _ZNSt8_Rb_treeIPvS0_St9_IdentityIS0_ESt4lessIS0_ESaIS0_EE16_M_insert_uniqueIRKS0_EESt4pairISt17_Rb_tree_iteratorIS0_EbEOT_ @707
    _ZNSt8_Rb_treeIPvS0_St9_IdentityIS0_ESt4lessIS0_ESaIS0_EE17_M_construct_nodeIJRKS0_EEEvPSt13_Rb_tree_nodeIS0_EDpOT_ @708
    _ZNSt8_Rb_treeIPvS0_St9_IdentityIS0_ESt4lessIS0_ESaIS0_EE21_M_get_Node_allocatorEv @709
    _ZNSt8_Rb_treeIPvS0_St9_IdentityIS0_ESt4lessIS0_ESaIS0_EE24_M_get_insert_unique_posERKS0_ @710
    _ZNSt8_Rb_treeIPvS0_St9_IdentityIS0_ESt4lessIS0_ESaIS0_EE5beginEv @711
    _ZNSt8_Rb_treeIPvS0_St9_IdentityIS0_ESt4lessIS0_ESaIS0_EE6_M_endEv @712
    _ZNSt8_Rb_treeIPvS0_St9_IdentityIS0_ESt4lessIS0_ESaIS0_EE6_S_keyEPKSt13_Rb_tree_nodeIS0_E @713
    _ZNSt8_Rb_treeIPvS0_St9_IdentityIS0_ESt4lessIS0_ESaIS0_EE6_S_keyEPKSt18_Rb_tree_node_base @714
    _ZNSt8_Rb_treeIPvS0_St9_IdentityIS0_ESt4lessIS0_ESaIS0_EE7_S_leftEPSt18_Rb_tree_node_base @715
    _ZNSt8_Rb_treeIPvS0_St9_IdentityIS0_ESt4lessIS0_ESaIS0_EE8_M_beginEv @716
    _ZNSt8_Rb_treeIPvS0_St9_IdentityIS0_ESt4lessIS0_ESaIS0_EE8_M_eraseEPSt13_Rb_tree_nodeIS0_E @717
    _ZNSt8_Rb_treeIPvS0_St9_IdentityIS0_ESt4lessIS0_ESaIS0_EE8_S_rightEPSt18_Rb_tree_node_base @718
    _ZNSt8_Rb_treeIPvS0_St9_IdentityIS0_ESt4lessIS0_ESaIS0_EE8_S_valueEPKSt13_Rb_tree_nodeIS0_E @719
    _ZNSt8_Rb_treeIPvS0_St9_IdentityIS0_ESt4lessIS0_ESaIS0_EE8_S_valueEPKSt18_Rb_tree_node_base @720
    _ZNSt8_Rb_treeIPvS0_St9_IdentityIS0_ESt4lessIS0_ESaIS0_EEC1Ev @721
    _ZNSt8_Rb_treeIPvS0_St9_IdentityIS0_ESt4lessIS0_ESaIS0_EED1Ev @722
    _ZNSt8_Rb_treeISsSt4pairIKSsP14VertexPropertyIPvEESt10_Select1stIS6_ESt4lessISsESaIS6_EE11_M_get_nodeEv @723
    _ZNSt8_Rb_treeISsSt4pairIKSsP14VertexPropertyIPvEESt10_Select1stIS6_ESt4lessISsESaIS6_EE11_M_leftmostEv @724
    _ZNSt8_Rb_treeISsSt4pairIKSsP14VertexPropertyIPvEESt10_Select1stIS6_ESt4lessISsESaIS6_EE11_M_put_nodeEPSt13_Rb_tree_nodeIS6_E @725
    _ZNSt8_Rb_treeISsSt4pairIKSsP14VertexPropertyIPvEESt10_Select1stIS6_ESt4lessISsESaIS6_EE11lower_boundERS1_ @726
    _ZNSt8_Rb_treeISsSt4pairIKSsP14VertexPropertyIPvEESt10_Select1stIS6_ESt4lessISsESaIS6_EE12_M_drop_nodeEPSt13_Rb_tree_nodeIS6_E @727
    _ZNSt8_Rb_treeISsSt4pairIKSsP14VertexPropertyIPvEESt10_Select1stIS6_ESt4lessISsESaIS6_EE12_M_rightmostEv @728
    _ZNSt8_Rb_treeISsSt4pairIKSsP14VertexPropertyIPvEESt10_Select1stIS6_ESt4lessISsESaIS6_EE13_Rb_tree_implISA_Lb1EE13_M_initializeEv @729
    _ZNSt8_Rb_treeISsSt4pairIKSsP14VertexPropertyIPvEESt10_Select1stIS6_ESt4lessISsESaIS6_EE13_Rb_tree_implISA_Lb1EEC1Ev @730
    _ZNSt8_Rb_treeISsSt4pairIKSsP14VertexPropertyIPvEESt10_Select1stIS6_ESt4lessISsESaIS6_EE13_Rb_tree_implISA_Lb1EED1Ev @731
    _ZNSt8_Rb_treeISsSt4pairIKSsP14VertexPropertyIPvEESt10_Select1stIS6_ESt4lessISsESaIS6_EE14_M_create_nodeIJRKSt21piecewise_construct_tSt5tupleIJRS1_EESH_IJEEEEEPSt13_Rb_tree_nodeIS6_EDpOT_ @732
    _ZNSt8_Rb_treeISsSt4pairIKSsP14VertexPropertyIPvEESt10_Select1stIS6_ESt4lessISsESaIS6_EE14_M_insert_nodeEPSt18_Rb_tree_node_baseSE_PSt13_Rb_tree_nodeIS6_E @733
    _ZNSt8_Rb_treeISsSt4pairIKSsP14VertexPropertyIPvEESt10_Select1stIS6_ESt4lessISsESaIS6_EE14_M_lower_boundEPSt13_Rb_tree_nodeIS6_ESF_RS1_ @734
    _ZNSt8_Rb_treeISsSt4pairIKSsP14VertexPropertyIPvEESt10_Select1stIS6_ESt4lessISsESaIS6_EE15_M_destroy_nodeEPSt13_Rb_tree_nodeIS6_E @735
    _ZNSt8_Rb_treeISsSt4pairIKSsP14VertexPropertyIPvEESt10_Select1stIS6_ESt4lessISsESaIS6_EE17_M_construct_nodeIJRKSt21piecewise_construct_tSt5tupleIJRS1_EESH_IJEEEEEvPSt13_Rb_tree_nodeIS6_EDpOT_ @736
    _ZNSt8_Rb_treeISsSt4pairIKSsP14VertexPropertyIPvEESt10_Select1stIS6_ESt4lessISsESaIS6_EE21_M_get_Node_allocatorEv @737
    _ZNSt8_Rb_treeISsSt4pairIKSsP14VertexPropertyIPvEESt10_Select1stIS6_ESt4lessISsESaIS6_EE22_M_emplace_hint_uniqueIJRKSt21piecewise_construct_tSt5tupleIJRS1_EESH_IJEEEEESt17_Rb_tree_iteratorIS6_ESt23_Rb_tree_const_iteratorIS6_EDpOT_ @738
    _ZNSt8_Rb_treeISsSt4pairIKSsP14VertexPropertyIPvEESt10_Select1stIS6_ESt4lessISsESaIS6_EE24_M_get_insert_unique_posERS1_ @739
    _ZNSt8_Rb_treeISsSt4pairIKSsP14VertexPropertyIPvEESt10_Select1stIS6_ESt4lessISsESaIS6_EE29_M_get_insert_hint_unique_posESt23_Rb_tree_const_iteratorIS6_ERS1_ @740
    _ZNSt8_Rb_treeISsSt4pairIKSsP14VertexPropertyIPvEESt10_Select1stIS6_ESt4lessISsESaIS6_EE3endEv @741
    _ZNSt8_Rb_treeISsSt4pairIKSsP14VertexPropertyIPvEESt10_Select1stIS6_ESt4lessISsESaIS6_EE4findERS1_ @742
    _ZNSt8_Rb_treeISsSt4pairIKSsP14VertexPropertyIPvEESt10_Select1stIS6_ESt4lessISsESaIS6_EE5beginEv @743
    _ZNSt8_Rb_treeISsSt4pairIKSsP14VertexPropertyIPvEESt10_Select1stIS6_ESt4lessISsESaIS6_EE6_M_endEv @744
    _ZNSt8_Rb_treeISsSt4pairIKSsP14VertexPropertyIPvEESt10_Select1stIS6_ESt4lessISsESaIS6_EE6_S_keyEPKSt13_Rb_tree_nodeIS6_E @745
    _ZNSt8_Rb_treeISsSt4pairIKSsP14VertexPropertyIPvEESt10_Select1stIS6_ESt4lessISsESaIS6_EE6_S_keyEPKSt18_Rb_tree_node_base @746
    _ZNSt8_Rb_treeISsSt4pairIKSsP14VertexPropertyIPvEESt10_Select1stIS6_ESt4lessISsESaIS6_EE7_S_leftEPSt18_Rb_tree_node_base @747
    _ZNSt8_Rb_treeISsSt4pairIKSsP14VertexPropertyIPvEESt10_Select1stIS6_ESt4lessISsESaIS6_EE8_M_beginEv @748
    _ZNSt8_Rb_treeISsSt4pairIKSsP14VertexPropertyIPvEESt10_Select1stIS6_ESt4lessISsESaIS6_EE8_M_eraseEPSt13_Rb_tree_nodeIS6_E @749
    _ZNSt8_Rb_treeISsSt4pairIKSsP14VertexPropertyIPvEESt10_Select1stIS6_ESt4lessISsESaIS6_EE8_S_rightEPSt18_Rb_tree_node_base @750
    _ZNSt8_Rb_treeISsSt4pairIKSsP14VertexPropertyIPvEESt10_Select1stIS6_ESt4lessISsESaIS6_EE8_S_valueEPKSt13_Rb_tree_nodeIS6_E @751
    _ZNSt8_Rb_treeISsSt4pairIKSsP14VertexPropertyIPvEESt10_Select1stIS6_ESt4lessISsESaIS6_EE8_S_valueEPKSt18_Rb_tree_node_base @752
    _ZNSt8_Rb_treeISsSt4pairIKSsP14VertexPropertyIPvEESt10_Select1stIS6_ESt4lessISsESaIS6_EEC1Ev @753
    _ZNSt8_Rb_treeISsSt4pairIKSsP14VertexPropertyIPvEESt10_Select1stIS6_ESt4lessISsESaIS6_EED1Ev @754
    _ZNSt8_Rb_treeISsSt4pairIKSsPvESt10_Select1stIS3_ESt4lessISsESaIS3_EE11_M_put_nodeEPSt13_Rb_tree_nodeIS3_E @755
    _ZNSt8_Rb_treeISsSt4pairIKSsPvESt10_Select1stIS3_ESt4lessISsESaIS3_EE12_M_drop_nodeEPSt13_Rb_tree_nodeIS3_E @756
    _ZNSt8_Rb_treeISsSt4pairIKSsPvESt10_Select1stIS3_ESt4lessISsESaIS3_EE13_Rb_tree_implIS7_Lb1EE13_M_initializeEv @757
    _ZNSt8_Rb_treeISsSt4pairIKSsPvESt10_Select1stIS3_ESt4lessISsESaIS3_EE13_Rb_tree_implIS7_Lb1EEC1Ev @758
    _ZNSt8_Rb_treeISsSt4pairIKSsPvESt10_Select1stIS3_ESt4lessISsESaIS3_EE13_Rb_tree_implIS7_Lb1EED1Ev @759
    _ZNSt8_Rb_treeISsSt4pairIKSsPvESt10_Select1stIS3_ESt4lessISsESaIS3_EE15_M_destroy_nodeEPSt13_Rb_tree_nodeIS3_E @760
    _ZNSt8_Rb_treeISsSt4pairIKSsPvESt10_Select1stIS3_ESt4lessISsESaIS3_EE21_M_get_Node_allocatorEv @761
    _ZNSt8_Rb_treeISsSt4pairIKSsPvESt10_Select1stIS3_ESt4lessISsESaIS3_EE7_S_leftEPSt18_Rb_tree_node_base @762
    _ZNSt8_Rb_treeISsSt4pairIKSsPvESt10_Select1stIS3_ESt4lessISsESaIS3_EE8_M_beginEv @763
    _ZNSt8_Rb_treeISsSt4pairIKSsPvESt10_Select1stIS3_ESt4lessISsESaIS3_EE8_M_eraseEPSt13_Rb_tree_nodeIS3_E @764
    _ZNSt8_Rb_treeISsSt4pairIKSsPvESt10_Select1stIS3_ESt4lessISsESaIS3_EE8_S_rightEPSt18_Rb_tree_node_base @765
    _ZNSt8_Rb_treeISsSt4pairIKSsPvESt10_Select1stIS3_ESt4lessISsESaIS3_EEC1Ev @766
    _ZNSt8_Rb_treeISsSt4pairIKSsPvESt10_Select1stIS3_ESt4lessISsESaIS3_EED1Ev @767
    _ZNSt8_Rb_treeImSt4pairIKmmESt10_Select1stIS2_ESt4lessImESaIS2_EE11_M_get_nodeEv @768
    _ZNSt8_Rb_treeImSt4pairIKmmESt10_Select1stIS2_ESt4lessImESaIS2_EE11_M_leftmostEv @769
    _ZNSt8_Rb_treeImSt4pairIKmmESt10_Select1stIS2_ESt4lessImESaIS2_EE11_M_put_nodeEPSt13_Rb_tree_nodeIS2_E @770
    _ZNSt8_Rb_treeImSt4pairIKmmESt10_Select1stIS2_ESt4lessImESaIS2_EE11lower_boundERS1_ @771
    _ZNSt8_Rb_treeImSt4pairIKmmESt10_Select1stIS2_ESt4lessImESaIS2_EE12_M_drop_nodeEPSt13_Rb_tree_nodeIS2_E @772
    _ZNSt8_Rb_treeImSt4pairIKmmESt10_Select1stIS2_ESt4lessImESaIS2_EE12_M_rightmostEv @773
    _ZNSt8_Rb_treeImSt4pairIKmmESt10_Select1stIS2_ESt4lessImESaIS2_EE13_Rb_tree_implIS6_Lb1EE13_M_initializeEv @774
    _ZNSt8_Rb_treeImSt4pairIKmmESt10_Select1stIS2_ESt4lessImESaIS2_EE13_Rb_tree_implIS6_Lb1EEC1Ev @775
    _ZNSt8_Rb_treeImSt4pairIKmmESt10_Select1stIS2_ESt4lessImESaIS2_EE13_Rb_tree_implIS6_Lb1EED1Ev @776
    _ZNSt8_Rb_treeImSt4pairIKmmESt10_Select1stIS2_ESt4lessImESaIS2_EE14_M_create_nodeIJRKSt21piecewise_construct_tSt5tupleIJRS1_EESD_IJEEEEEPSt13_Rb_tree_nodeIS2_EDpOT_ @777
    _ZNSt8_Rb_treeImSt4pairIKmmESt10_Select1stIS2_ESt4lessImESaIS2_EE14_M_insert_nodeEPSt18_Rb_tree_node_baseSA_PSt13_Rb_tree_nodeIS2_E @778
    _ZNSt8_Rb_treeImSt4pairIKmmESt10_Select1stIS2_ESt4lessImESaIS2_EE14_M_lower_boundEPSt13_Rb_tree_nodeIS2_ESB_RS1_ @779
    _ZNSt8_Rb_treeImSt4pairIKmmESt10_Select1stIS2_ESt4lessImESaIS2_EE15_M_destroy_nodeEPSt13_Rb_tree_nodeIS2_E @780
    _ZNSt8_Rb_treeImSt4pairIKmmESt10_Select1stIS2_ESt4lessImESaIS2_EE17_M_construct_nodeIJRKSt21piecewise_construct_tSt5tupleIJRS1_EESD_IJEEEEEvPSt13_Rb_tree_nodeIS2_EDpOT_ @781
    _ZNSt8_Rb_treeImSt4pairIKmmESt10_Select1stIS2_ESt4lessImESaIS2_EE21_M_get_Node_allocatorEv @782
    _ZNSt8_Rb_treeImSt4pairIKmmESt10_Select1stIS2_ESt4lessImESaIS2_EE22_M_emplace_hint_uniqueIJRKSt21piecewise_construct_tSt5tupleIJRS1_EESD_IJEEEEESt17_Rb_tree_iteratorIS2_ESt23_Rb_tree_const_iteratorIS2_EDpOT_ @783
    _ZNSt8_Rb_treeImSt4pairIKmmESt10_Select1stIS2_ESt4lessImESaIS2_EE24_M_get_insert_unique_posERS1_ @784
    _ZNSt8_Rb_treeImSt4pairIKmmESt10_Select1stIS2_ESt4lessImESaIS2_EE29_M_get_insert_hint_unique_posESt23_Rb_tree_const_iteratorIS2_ERS1_ @785
    _ZNSt8_Rb_treeImSt4pairIKmmESt10_Select1stIS2_ESt4lessImESaIS2_EE3endEv @786
    _ZNSt8_Rb_treeImSt4pairIKmmESt10_Select1stIS2_ESt4lessImESaIS2_EE4findERS1_ @787
    _ZNSt8_Rb_treeImSt4pairIKmmESt10_Select1stIS2_ESt4lessImESaIS2_EE5beginEv @788
    _ZNSt8_Rb_treeImSt4pairIKmmESt10_Select1stIS2_ESt4lessImESaIS2_EE6_M_endEv @789
    _ZNSt8_Rb_treeImSt4pairIKmmESt10_Select1stIS2_ESt4lessImESaIS2_EE6_S_keyEPKSt13_Rb_tree_nodeIS2_E @790
    _ZNSt8_Rb_treeImSt4pairIKmmESt10_Select1stIS2_ESt4lessImESaIS2_EE6_S_keyEPKSt18_Rb_tree_node_base @791
    _ZNSt8_Rb_treeImSt4pairIKmmESt10_Select1stIS2_ESt4lessImESaIS2_EE7_S_leftEPSt18_Rb_tree_node_base @792
    _ZNSt8_Rb_treeImSt4pairIKmmESt10_Select1stIS2_ESt4lessImESaIS2_EE8_M_beginEv @793
    _ZNSt8_Rb_treeImSt4pairIKmmESt10_Select1stIS2_ESt4lessImESaIS2_EE8_M_eraseEPSt13_Rb_tree_nodeIS2_E @794
    _ZNSt8_Rb_treeImSt4pairIKmmESt10_Select1stIS2_ESt4lessImESaIS2_EE8_S_rightEPSt18_Rb_tree_node_base @795
    _ZNSt8_Rb_treeImSt4pairIKmmESt10_Select1stIS2_ESt4lessImESaIS2_EE8_S_valueEPKSt13_Rb_tree_nodeIS2_E @796
    _ZNSt8_Rb_treeImSt4pairIKmmESt10_Select1stIS2_ESt4lessImESaIS2_EE8_S_valueEPKSt18_Rb_tree_node_base @797
    _ZNSt8_Rb_treeImSt4pairIKmmESt10_Select1stIS2_ESt4lessImESaIS2_EEC1Ev @798
    _ZNSt8_Rb_treeImSt4pairIKmmESt10_Select1stIS2_ESt4lessImESaIS2_EED1Ev @799
    _ZSt10__distanceIN9__gnu_cxx17__normal_iteratorIPPvSt6vectorIS2_SaIS2_EEEEENSt15iterator_traitsIT_E15difference_typeES9_S9_St26random_access_iterator_tag @800
    _ZSt10__distanceIPKPvENSt15iterator_traitsIT_E15difference_typeES4_S4_St26random_access_iterator_tag @801
    _ZSt10__distanceISt23_Rb_tree_const_iteratorIPvEENSt15iterator_traitsIT_E15difference_typeES4_S4_St18input_iterator_tag @802
    _ZSt11__addressofISsEPT_RS0_ @803
    _ZSt12__get_helperILm0ERKSsJEERT0_RSt11_Tuple_implIXT_EJS2_DpT1_EE @804
    _ZSt12__get_helperILm0ERKmJEERT0_RSt11_Tuple_implIXT_EJS2_DpT1_EE @805
    _ZSt12__miter_baseIN9__gnu_cxx17__normal_iteratorIPKP13TraversalStepSt6vectorIS3_SaIS3_EEEEENSt11_Miter_baseIT_E13iterator_typeESB_ @806
    _ZSt12__miter_baseIN9__gnu_cxx17__normal_iteratorIPKP4EdgeSt6vectorIS3_SaIS3_EEEEENSt11_Miter_baseIT_E13iterator_typeESB_ @807
    _ZSt12__miter_baseIN9__gnu_cxx17__normal_iteratorIPKP6VertexSt6vectorIS3_SaIS3_EEEEENSt11_Miter_baseIT_E13iterator_typeESB_ @808
    _ZSt12__miter_baseIN9__gnu_cxx17__normal_iteratorIPKP7BitEdgeSt6vectorIS3_SaIS3_EEEEENSt11_Miter_baseIT_E13iterator_typeESB_ @809
    _ZSt12__miter_baseIN9__gnu_cxx17__normal_iteratorIPKPvSt6vectorIS2_SaIS2_EEEEENSt11_Miter_baseIT_E13iterator_typeESA_ @810
    _ZSt12__miter_baseIN9__gnu_cxx17__normal_iteratorIPP9TraverserIPvESt6vectorIS5_SaIS5_EEEEENSt11_Miter_baseIT_E13iterator_typeESC_ @811
    _ZSt12__miter_baseIN9__gnu_cxx17__normal_iteratorIPPvSt6vectorIS2_SaIS2_EEEEENSt11_Miter_baseIT_E13iterator_typeES9_ @812
    _ZSt12__miter_baseIPKPvENSt11_Miter_baseIT_E13iterator_typeES4_ @813
    _ZSt12__miter_baseIPP13TraversalStepENSt11_Miter_baseIT_E13iterator_typeES4_ @814
    _ZSt12__miter_baseISt13move_iteratorIPP13TraversalStepEENSt11_Miter_baseIT_E13iterator_typeES6_ @815
    _ZSt12__miter_baseISt13move_iteratorIPP6VertexEENSt11_Miter_baseIT_E13iterator_typeES6_ @816
    _ZSt12__miter_baseISt13move_iteratorIPP7BitEdgeEENSt11_Miter_baseIT_E13iterator_typeES6_ @817
    _ZSt12__miter_baseISt13move_iteratorIPP9TraverserIPvEEENSt11_Miter_baseIT_E13iterator_typeES8_ @818
    _ZSt12__miter_baseISt13move_iteratorIPPvEENSt11_Miter_baseIT_E13iterator_typeES5_ @819
    _ZSt12__miter_baseISt23_Rb_tree_const_iteratorIPvEENSt11_Miter_baseIT_E13iterator_typeES4_ @820
    _ZSt12__niter_baseIN9__gnu_cxx17__normal_iteratorIPKP13TraversalStepSt6vectorIS3_SaIS3_EEEEENSt11_Niter_baseIT_E13iterator_typeESB_ @821
    _ZSt12__niter_baseIN9__gnu_cxx17__normal_iteratorIPKP4EdgeSt6vectorIS3_SaIS3_EEEEENSt11_Niter_baseIT_E13iterator_typeESB_ @822
    _ZSt12__niter_baseIN9__gnu_cxx17__normal_iteratorIPKP6VertexSt6vectorIS3_SaIS3_EEEEENSt11_Niter_baseIT_E13iterator_typeESB_ @823
    _ZSt12__niter_baseIN9__gnu_cxx17__normal_iteratorIPKP7BitEdgeSt6vectorIS3_SaIS3_EEEEENSt11_Niter_baseIT_E13iterator_typeESB_ @824
    _ZSt12__niter_baseIN9__gnu_cxx17__normal_iteratorIPKPvSt6vectorIS2_SaIS2_EEEEENSt11_Niter_baseIT_E13iterator_typeESA_ @825
    _ZSt12__niter_baseIN9__gnu_cxx17__normal_iteratorIPP9TraverserIPvESt6vectorIS5_SaIS5_EEEEENSt11_Niter_baseIT_E13iterator_typeESC_ @826
    _ZSt12__niter_baseIN9__gnu_cxx17__normal_iteratorIPPvSt6vectorIS2_SaIS2_EEEEENSt11_Niter_baseIT_E13iterator_typeES9_ @827
    _ZSt12__niter_baseIPKPvENSt11_Niter_baseIT_E13iterator_typeES4_ @828
    _ZSt12__niter_baseIPP13TraversalStepENSt11_Niter_baseIT_E13iterator_typeES4_ @829
    _ZSt12__niter_baseIPP4EdgeENSt11_Niter_baseIT_E13iterator_typeES4_ @830
    _ZSt12__niter_baseIPP6VertexENSt11_Niter_baseIT_E13iterator_typeES4_ @831
    _ZSt12__niter_baseIPP7BitEdgeENSt11_Niter_baseIT_E13iterator_typeES4_ @832
    _ZSt12__niter_baseIPP9TraverserIPvEENSt11_Niter_baseIT_E13iterator_typeES6_ @833
    _ZSt12__niter_baseIPPvENSt11_Niter_baseIT_E13iterator_typeES3_ @834
    _ZSt12__niter_baseISt23_Rb_tree_const_iteratorIPvEENSt11_Niter_baseIT_E13iterator_typeES4_ @835
    _ZSt13__copy_move_aILb0EPKP13TraversalStepPS1_ET1_T0_S6_S5_ @836
    _ZSt13__copy_move_aILb0EPKP4EdgePS1_ET1_T0_S6_S5_ @837
    _ZSt13__copy_move_aILb0EPKP6VertexPS1_ET1_T0_S6_S5_ @838
    _ZSt13__copy_move_aILb0EPKP7BitEdgePS1_ET1_T0_S6_S5_ @839
    _ZSt13__copy_move_aILb0EPKPvPS0_ET1_T0_S5_S4_ @840
    _ZSt13__copy_move_aILb0EPPvS1_ET1_T0_S3_S2_ @841
    _ZSt13__copy_move_aILb0ESt23_Rb_tree_const_iteratorIPvEPS1_ET1_T0_S5_S4_ @842
    _ZSt13__copy_move_aILb1EPP13TraversalStepS2_ET1_T0_S4_S3_ @843
    _ZSt13__copy_move_aILb1EPP6VertexS2_ET1_T0_S4_S3_ @844
    _ZSt13__copy_move_aILb1EPP7BitEdgeS2_ET1_T0_S4_S3_ @845
    _ZSt13__copy_move_aILb1EPP9TraverserIPvES4_ET1_T0_S6_S5_ @846
    _ZSt13__copy_move_aILb1EPPvS1_ET1_T0_S3_S2_ @847
    _ZSt13move_backwardIPP13TraversalStepS2_ET0_T_S4_S3_ @848
    _ZSt14__copy_move_a2ILb0EN9__gnu_cxx17__normal_iteratorIPKP13TraversalStepSt6vectorIS3_SaIS3_EEEEPS3_ET1_T0_SC_SB_ @849
    _ZSt14__copy_move_a2ILb0EN9__gnu_cxx17__normal_iteratorIPKP4EdgeSt6vectorIS3_SaIS3_EEEEPS3_ET1_T0_SC_SB_ @850
    _ZSt14__copy_move_a2ILb0EN9__gnu_cxx17__normal_iteratorIPKP6VertexSt6vectorIS3_SaIS3_EEEEPS3_ET1_T0_SC_SB_ @851
    _ZSt14__copy_move_a2ILb0EN9__gnu_cxx17__normal_iteratorIPKP7BitEdgeSt6vectorIS3_SaIS3_EEEEPS3_ET1_T0_SC_SB_ @852
    _ZSt14__copy_move_a2ILb0EN9__gnu_cxx17__normal_iteratorIPKPvSt6vectorIS2_SaIS2_EEEEPS2_ET1_T0_SB_SA_ @853
    _ZSt14__copy_move_a2ILb0EN9__gnu_cxx17__normal_iteratorIPPvSt6vectorIS2_SaIS2_EEEES3_ET1_T0_S9_S8_ @854
    _ZSt14__copy_move_a2ILb0EPKPvPS0_ET1_T0_S5_S4_ @855
    _ZSt14__copy_move_a2ILb0ESt23_Rb_tree_const_iteratorIPvEPS1_ET1_T0_S5_S4_ @856
    _ZSt14__copy_move_a2ILb1EN9__gnu_cxx17__normal_iteratorIPP9TraverserIPvESt6vectorIS5_SaIS5_EEEESA_ET1_T0_SC_SB_ @857
    _ZSt14__copy_move_a2ILb1EPP13TraversalStepS2_ET1_T0_S4_S3_ @858
    _ZSt14__copy_move_a2ILb1EPP6VertexS2_ET1_T0_S4_S3_ @859
    _ZSt14__copy_move_a2ILb1EPP7BitEdgeS2_ET1_T0_S4_S3_ @860
    _ZSt14__copy_move_a2ILb1EPP9TraverserIPvES4_ET1_T0_S6_S5_ @861
    _ZSt14__copy_move_a2ILb1EPPvS1_ET1_T0_S3_S2_ @862
    _ZSt18uninitialized_copyIN9__gnu_cxx17__normal_iteratorIPKP13TraversalStepSt6vectorIS3_SaIS3_EEEEPS3_ET0_T_SC_SB_ @863
    _ZSt18uninitialized_copyIN9__gnu_cxx17__normal_iteratorIPKP4EdgeSt6vectorIS3_SaIS3_EEEEPS3_ET0_T_SC_SB_ @864
    _ZSt18uninitialized_copyIN9__gnu_cxx17__normal_iteratorIPKP6VertexSt6vectorIS3_SaIS3_EEEEPS3_ET0_T_SC_SB_ @865
    _ZSt18uninitialized_copyIN9__gnu_cxx17__normal_iteratorIPKP7BitEdgeSt6vectorIS3_SaIS3_EEEEPS3_ET0_T_SC_SB_ @866
    _ZSt18uninitialized_copyIN9__gnu_cxx17__normal_iteratorIPKPvSt6vectorIS2_SaIS2_EEEEPS2_ET0_T_SB_SA_ @867
    _ZSt18uninitialized_copyIN9__gnu_cxx17__normal_iteratorIPPvSt6vectorIS2_SaIS2_EEEES3_ET0_T_S9_S8_ @868
    _ZSt18uninitialized_copyIPKPvPS0_ET0_T_S5_S4_ @869
    _ZSt18uninitialized_copyISt13move_iteratorIPP13TraversalStepES3_ET0_T_S6_S5_ @870
    _ZSt18uninitialized_copyISt13move_iteratorIPP6VertexES3_ET0_T_S6_S5_ @871
    _ZSt18uninitialized_copyISt13move_iteratorIPP7BitEdgeES3_ET0_T_S6_S5_ @872
    _ZSt18uninitialized_copyISt13move_iteratorIPP9TraverserIPvEES5_ET0_T_S8_S7_ @873
    _ZSt18uninitialized_copyISt13move_iteratorIPPvES2_ET0_T_S5_S4_ @874
    _ZSt18uninitialized_copyISt23_Rb_tree_const_iteratorIPvEPS1_ET0_T_S5_S4_ @875
    _ZSt19__iterator_categoryIN9__gnu_cxx17__normal_iteratorIPPvSt6vectorIS2_SaIS2_EEEEENSt15iterator_traitsIT_E17iterator_categoryERKS9_ @876
    _ZSt19__iterator_categoryIPKPvENSt15iterator_traitsIT_E17iterator_categoryERKS4_ @877
    _ZSt19__iterator_categoryISt23_Rb_tree_const_iteratorIPvEENSt15iterator_traitsIT_E17iterator_categoryERKS4_ @878
    _ZSt22__copy_move_backward_aILb1EPP13TraversalStepS2_ET1_T0_S4_S3_ @879
    _ZSt22__uninitialized_copy_aIN9__gnu_cxx17__normal_iteratorIPKP13TraversalStepSt6vectorIS3_SaIS3_EEEEPS3_S3_ET0_T_SC_SB_RSaIT1_E @880
    _ZSt22__uninitialized_copy_aIN9__gnu_cxx17__normal_iteratorIPKP4EdgeSt6vectorIS3_SaIS3_EEEEPS3_S3_ET0_T_SC_SB_RSaIT1_E @881
    _ZSt22__uninitialized_copy_aIN9__gnu_cxx17__normal_iteratorIPKP6VertexSt6vectorIS3_SaIS3_EEEEPS3_S3_ET0_T_SC_SB_RSaIT1_E @882
    _ZSt22__uninitialized_copy_aIN9__gnu_cxx17__normal_iteratorIPKP7BitEdgeSt6vectorIS3_SaIS3_EEEEPS3_S3_ET0_T_SC_SB_RSaIT1_E @883
    _ZSt22__uninitialized_copy_aIN9__gnu_cxx17__normal_iteratorIPKPvSt6vectorIS2_SaIS2_EEEEPS2_S2_ET0_T_SB_SA_RSaIT1_E @884
    _ZSt22__uninitialized_copy_aIN9__gnu_cxx17__normal_iteratorIPPvSt6vectorIS2_SaIS2_EEEES3_S2_ET0_T_S9_S8_RSaIT1_E @885
    _ZSt22__uninitialized_copy_aIPKPvPS0_S0_ET0_T_S5_S4_RSaIT1_E @886
    _ZSt22__uninitialized_copy_aISt13move_iteratorIPP13TraversalStepES3_S2_ET0_T_S6_S5_RSaIT1_E @887
    _ZSt22__uninitialized_copy_aISt13move_iteratorIPP6VertexES3_S2_ET0_T_S6_S5_RSaIT1_E @888
    _ZSt22__uninitialized_copy_aISt13move_iteratorIPP7BitEdgeES3_S2_ET0_T_S6_S5_RSaIT1_E @889
    _ZSt22__uninitialized_copy_aISt13move_iteratorIPP9TraverserIPvEES5_S4_ET0_T_S8_S7_RSaIT1_E @890
    _ZSt22__uninitialized_copy_aISt13move_iteratorIPPvES2_S1_ET0_T_S5_S4_RSaIT1_E @891
    _ZSt22__uninitialized_copy_aISt23_Rb_tree_const_iteratorIPvEPS1_S1_ET0_T_S5_S4_RSaIT1_E @892
    _ZSt23__copy_move_backward_a2ILb1EPP13TraversalStepS2_ET1_T0_S4_S3_ @893
    _ZSt32__make_move_if_noexcept_iteratorIPP13TraversalStepSt13move_iteratorIS2_EET0_T_ @894
    _ZSt32__make_move_if_noexcept_iteratorIPP6VertexSt13move_iteratorIS2_EET0_T_ @895
    _ZSt32__make_move_if_noexcept_iteratorIPP7BitEdgeSt13move_iteratorIS2_EET0_T_ @896
    _ZSt32__make_move_if_noexcept_iteratorIPP9TraverserIPvESt13move_iteratorIS4_EET0_T_ @897
    _ZSt32__make_move_if_noexcept_iteratorIPPvSt13move_iteratorIS1_EET0_T_ @898
    _ZSt34__uninitialized_move_if_noexcept_aIPP13TraversalStepS2_SaIS1_EET0_T_S5_S4_RT1_ @899
    _ZSt34__uninitialized_move_if_noexcept_aIPP6VertexS2_SaIS1_EET0_T_S5_S4_RT1_ @900
    _ZSt34__uninitialized_move_if_noexcept_aIPP7BitEdgeS2_SaIS1_EET0_T_S5_S4_RT1_ @901
    _ZSt34__uninitialized_move_if_noexcept_aIPP9TraverserIPvES4_SaIS3_EET0_T_S7_S6_RT1_ @902
    _ZSt34__uninitialized_move_if_noexcept_aIPPvS1_SaIS0_EET0_T_S4_S3_RT1_ @903
    _ZSt3getILm0EJRKSsEERNSt13tuple_elementIXT_ESt5tupleIJDpT0_EEE4typeERS6_ @904
    _ZSt3getILm0EJRKmEERNSt13tuple_elementIXT_ESt5tupleIJDpT0_EEE4typeERS6_ @905
    _ZSt3maxImERKT_S2_S2_ @906
    _ZSt4copyIN9__gnu_cxx17__normal_iteratorIPKP13TraversalStepSt6vectorIS3_SaIS3_EEEEPS3_ET0_T_SC_SB_ @907
    _ZSt4copyIN9__gnu_cxx17__normal_iteratorIPKP4EdgeSt6vectorIS3_SaIS3_EEEEPS3_ET0_T_SC_SB_ @908
    _ZSt4copyIN9__gnu_cxx17__normal_iteratorIPKP6VertexSt6vectorIS3_SaIS3_EEEEPS3_ET0_T_SC_SB_ @909
    _ZSt4copyIN9__gnu_cxx17__normal_iteratorIPKP7BitEdgeSt6vectorIS3_SaIS3_EEEEPS3_ET0_T_SC_SB_ @910
    _ZSt4copyIN9__gnu_cxx17__normal_iteratorIPKPvSt6vectorIS2_SaIS2_EEEEPS2_ET0_T_SB_SA_ @911
    _ZSt4copyIN9__gnu_cxx17__normal_iteratorIPPvSt6vectorIS2_SaIS2_EEEES3_ET0_T_S9_S8_ @912
    _ZSt4copyIPKPvPS0_ET0_T_S5_S4_ @913
    _ZSt4copyISt13move_iteratorIPP13TraversalStepES3_ET0_T_S6_S5_ @914
    _ZSt4copyISt13move_iteratorIPP6VertexES3_ET0_T_S6_S5_ @915
    _ZSt4copyISt13move_iteratorIPP7BitEdgeES3_ET0_T_S6_S5_ @916
    _ZSt4copyISt13move_iteratorIPP9TraverserIPvEES5_ET0_T_S8_S7_ @917
    _ZSt4copyISt13move_iteratorIPPvES2_ET0_T_S5_S4_ @918
    _ZSt4copyISt23_Rb_tree_const_iteratorIPvEPS1_ET0_T_S5_S4_ @919
    _ZSt4moveIN9__gnu_cxx17__normal_iteratorIPP9TraverserIPvESt6vectorIS5_SaIS5_EEEESA_ET0_T_SC_SB_ @920
    _ZSt4moveIRP13TraversalStepEONSt16remove_referenceIT_E4typeEOS4_ @921
    _ZSt4moveIRP9TraverserIPvEEONSt16remove_referenceIT_E4typeEOS6_ @922
    _ZSt4moveIRPP7BitEdgeEONSt16remove_referenceIT_E4typeEOS5_ @923
    _ZSt4moveIRSaIP7BitEdgeEEONSt16remove_referenceIT_E4typeEOS5_ @924
    _ZSt4moveIRSt6vectorIP7BitEdgeSaIS2_EEEONSt16remove_referenceIT_E4typeEOS7_ @925
    _ZSt4moveIRZN14VertexPropertyIPvEC4E11CardinalitySsSt6vectorIS1_SaIS1_EEEUlS1_E_EONSt16remove_referenceIT_E4typeEOSA_ @926
    _ZSt4moveIRZN17CPUGraphTraversalI4EdgeS1_E15copy_traversersEPSt6vectorIP9TraverserIPvESaIS7_EEEUlS7_E_EONSt16remove_referenceIT_E4typeEOSE_ @927
    _ZSt4moveIRZN17CPUGraphTraversalI4EdgeS1_E22get_initial_traversersEvEUlP6VertexE_EONSt16remove_referenceIT_E4typeEOS8_ @928
    _ZSt4moveIRZN17CPUGraphTraversalI4EdgeS1_E7executeEPSt6vectorIP9TraverserIPvESaIS7_EEEUlS5_E_EONSt16remove_referenceIT_E4typeEOSE_ @929
    _ZSt4moveIRZN17CPUGraphTraversalI4EdgeS1_E7executeEPSt6vectorIP9TraverserIPvESaIS7_EEEUlS7_E0_EONSt16remove_referenceIT_E4typeEOSE_ @930
    _ZSt4moveIRZN17CPUGraphTraversalI4EdgeS1_E7executeEPSt6vectorIP9TraverserIPvESaIS7_EEEUlS7_E1_EONSt16remove_referenceIT_E4typeEOSE_ @931
    _ZSt4moveIRZN17CPUGraphTraversalI4EdgeS1_E7executeEPSt6vectorIP9TraverserIPvESaIS7_EEEUlS7_E2_EONSt16remove_referenceIT_E4typeEOSE_ @932
    _ZSt4moveIRZN17CPUGraphTraversalI4EdgeS1_E7executeEPSt6vectorIP9TraverserIPvESaIS7_EEEUlS7_E3_EONSt16remove_referenceIT_E4typeEOSE_ @933
    _ZSt4moveIRZN17CPUGraphTraversalI4EdgeS1_E7executeEPSt6vectorIP9TraverserIPvESaIS7_EEEUlS7_E4_EONSt16remove_referenceIT_E4typeEOSE_ @934
    _ZSt4moveIRZN17CPUGraphTraversalI4EdgeS1_E8get_nextEPSt6vectorIP9TraverserIPvESaIS7_EEPS0_IS5_S5_EEUlS7_E_EONSt16remove_referenceIT_E4typeEOSG_ @935
    _ZSt4moveIRZN17CPUGraphTraversalI6VertexS1_E15copy_traversersEPSt6vectorIP9TraverserIPvESaIS7_EEEUlS7_E_EONSt16remove_referenceIT_E4typeEOSE_ @936
    _ZSt4moveIRZN17CPUGraphTraversalI6VertexS1_E22get_initial_traversersEvEUlPS1_E_EONSt16remove_referenceIT_E4typeEOS7_ @937
    _ZSt4moveIRZN17CPUGraphTraversalI6VertexS1_E7executeEPSt6vectorIP9TraverserIPvESaIS7_EEEUlS5_E_EONSt16remove_referenceIT_E4typeEOSE_ @938
    _ZSt4moveIRZN17CPUGraphTraversalI6VertexS1_E7executeEPSt6vectorIP9TraverserIPvESaIS7_EEEUlS7_E0_EONSt16remove_referenceIT_E4typeEOSE_ @939
    _ZSt4moveIRZN17CPUGraphTraversalI6VertexS1_E7executeEPSt6vectorIP9TraverserIPvESaIS7_EEEUlS7_E1_EONSt16remove_referenceIT_E4typeEOSE_ @940
    _ZSt4moveIRZN17CPUGraphTraversalI6VertexS1_E7executeEPSt6vectorIP9TraverserIPvESaIS7_EEEUlS7_E2_EONSt16remove_referenceIT_E4typeEOSE_ @941
    _ZSt4moveIRZN17CPUGraphTraversalI6VertexS1_E7executeEPSt6vectorIP9TraverserIPvESaIS7_EEEUlS7_E3_EONSt16remove_referenceIT_E4typeEOSE_ @942
    _ZSt4moveIRZN17CPUGraphTraversalI6VertexS1_E7executeEPSt6vectorIP9TraverserIPvESaIS7_EEEUlS7_E4_EONSt16remove_referenceIT_E4typeEOSE_ @943
    _ZSt4moveIRZN17CPUGraphTraversalI6VertexS1_E8get_nextEPSt6vectorIP9TraverserIPvESaIS7_EEPS0_IS5_S5_EEUlS7_E_EONSt16remove_referenceIT_E4typeEOSG_ @944
    _ZSt4moveIRZN17CPUGraphTraversalIPv6VertexE15copy_traversersEPSt6vectorIP9TraverserIS1_ESaIS7_EEEUlS7_E_EONSt16remove_referenceIT_E4typeEOSE_ @945
    _ZSt4moveIRZN17CPUGraphTraversalIPv6VertexE22get_initial_traversersEvEUlPS2_E_EONSt16remove_referenceIT_E4typeEOS8_ @946
    _ZSt4moveIRZN17CPUGraphTraversalIPv6VertexE7executeEPSt6vectorIP9TraverserIS1_ESaIS7_EEEUlS1_E_EONSt16remove_referenceIT_E4typeEOSE_ @947
    _ZSt4moveIRZN17CPUGraphTraversalIPv6VertexE7executeEPSt6vectorIP9TraverserIS1_ESaIS7_EEEUlS7_E0_EONSt16remove_referenceIT_E4typeEOSE_ @948
    _ZSt4moveIRZN17CPUGraphTraversalIPv6VertexE7executeEPSt6vectorIP9TraverserIS1_ESaIS7_EEEUlS7_E1_EONSt16remove_referenceIT_E4typeEOSE_ @949
    _ZSt4moveIRZN17CPUGraphTraversalIPv6VertexE7executeEPSt6vectorIP9TraverserIS1_ESaIS7_EEEUlS7_E2_EONSt16remove_referenceIT_E4typeEOSE_ @950
    _ZSt4moveIRZN17CPUGraphTraversalIPv6VertexE7executeEPSt6vectorIP9TraverserIS1_ESaIS7_EEEUlS7_E3_EONSt16remove_referenceIT_E4typeEOSE_ @951
    _ZSt4moveIRZN17CPUGraphTraversalIPv6VertexE7executeEPSt6vectorIP9TraverserIS1_ESaIS7_EEEUlS7_E4_EONSt16remove_referenceIT_E4typeEOSE_ @952
    _ZSt4moveIRZN17CPUGraphTraversalIPv6VertexE8get_nextEPSt6vectorIP9TraverserIS1_ESaIS7_EEPS0_IS1_S1_EEUlS7_E_EONSt16remove_referenceIT_E4typeEOSG_ @953
    _ZSt4moveIRZN17CPUGraphTraversalIPv6VertexEC4EP20GraphTraversalSourceP14GraphTraversalIS1_S2_EEUlP13TraversalStepE_EONSt16remove_referenceIT_E4typeEOSE_ @954
    _ZSt4moveIRZZN17CPUGraphTraversalI4EdgeS1_E7executeEPSt6vectorIP9TraverserIPvESaIS7_EEENKUlS7_E0_clES7_EUlP6VertexE_EONSt16remove_referenceIT_E4typeEOSH_ @955
    _ZSt4moveIRZZN17CPUGraphTraversalI6VertexS1_E7executeEPSt6vectorIP9TraverserIPvESaIS7_EEENKUlS7_E0_clES7_EUlPS1_E_EONSt16remove_referenceIT_E4typeEOSG_ @956
    _ZSt4moveIRZZN17CPUGraphTraversalIPv6VertexE7executeEPSt6vectorIP9TraverserIS1_ESaIS7_EEENKUlS7_E0_clES7_EUlPS2_E_EONSt16remove_referenceIT_E4typeEOSG_ @957
    _ZSt4swapIPP7BitEdgeEvRT_S4_ @958
    _ZSt7forwardIP10VertexStepEOT_RNSt16remove_referenceIS2_E4typeE @959
    _ZSt7forwardIP13TraversalStepEOT_RNSt16remove_referenceIS2_E4typeE @960
    _ZSt7forwardIP9TraverserIPvEEOT_RNSt16remove_referenceIS4_E4typeE @961
    _ZSt7forwardIRKP13TraversalStepEOT_RNSt16remove_referenceIS4_E4typeE @962
    _ZSt7forwardIRKP6VertexEOT_RNSt16remove_referenceIS4_E4typeE @963
    _ZSt7forwardIRKP7BitEdgeEOT_RNSt16remove_referenceIS4_E4typeE @964
    _ZSt7forwardIRKPvEOT_RNSt16remove_referenceIS3_E4typeE @965
    _ZSt7forwardIRKSsEOT_RNSt16remove_referenceIS2_E4typeE @966
    _ZSt7forwardIRKSt21piecewise_construct_tEOT_RNSt16remove_referenceIS3_E4typeE @967
    _ZSt7forwardIRKmEOT_RNSt16remove_referenceIS2_E4typeE @968
    _ZSt7forwardIRPSt13_Rb_tree_nodeIPvEEOT_RNSt16remove_referenceIS5_E4typeE @969
    _ZSt7forwardIRPSt13_Rb_tree_nodeISt4pairIKSsP14VertexPropertyIPvEEEEOT_RNSt16remove_referenceISB_E4typeE @970
    _ZSt7forwardIRPSt13_Rb_tree_nodeISt4pairIKmmEEEOT_RNSt16remove_referenceIS7_E4typeE @971
    _ZSt7forwardIRPSt18_Rb_tree_node_baseEOT_RNSt16remove_referenceIS3_E4typeE @972
    _ZSt7forwardIRSt17_Rb_tree_iteratorIPvEEOT_RNSt16remove_referenceIS4_E4typeE @973
    _ZSt7forwardIRbEOT_RNSt16remove_referenceIS1_E4typeE @974
    _ZSt7forwardISt17_Rb_tree_iteratorIPvEEOT_RNSt16remove_referenceIS3_E4typeE @975
    _ZSt7forwardISt5tupleIJEEEOT_RNSt16remove_referenceIS2_E4typeE @976
    _ZSt7forwardISt5tupleIJRKSsEEEOT_RNSt16remove_referenceIS4_E4typeE @977
    _ZSt7forwardISt5tupleIJRKmEEEOT_RNSt16remove_referenceIS4_E4typeE @978
    _ZSt7forwardIbEOT_RNSt16remove_referenceIS0_E4typeE @979
    _ZSt8_DestroyIPP13TraversalStepEvT_S3_ @980
    _ZSt8_DestroyIPP13TraversalStepS1_EvT_S3_RSaIT0_E @981
    _ZSt8_DestroyIPP6VertexEvT_S3_ @982
    _ZSt8_DestroyIPP6VertexS1_EvT_S3_RSaIT0_E @983
    _ZSt8_DestroyIPP7BitEdgeEvT_S3_ @984
    _ZSt8_DestroyIPP7BitEdgeS1_EvT_S3_RSaIT0_E @985
    _ZSt8_DestroyIPP9TraverserIPvEEvT_S5_ @986
    _ZSt8_DestroyIPP9TraverserIPvES3_EvT_S5_RSaIT0_E @987
    _ZSt8_DestroyIPPvEvT_S2_ @988
    _ZSt8_DestroyIPPvS0_EvT_S2_RSaIT0_E @989
    _ZSt8_DestroyIPSsEvT_S1_ @990
    _ZSt8_DestroyIPSsSsEvT_S1_RSaIT0_E @991
    _ZSt8_DestroyISsEvPT_ @992
    _ZSt8distanceIN9__gnu_cxx17__normal_iteratorIPPvSt6vectorIS2_SaIS2_EEEEENSt15iterator_traitsIT_E15difference_typeES9_S9_ @993
    _ZSt8distanceIPKPvENSt15iterator_traitsIT_E15difference_typeES4_S4_ @994
    _ZSt8distanceISt23_Rb_tree_const_iteratorIPvEENSt15iterator_traitsIT_E15difference_typeES4_S4_ @995
    _ZSt8for_eachIN9__gnu_cxx17__normal_iteratorIPP13TraversalStepSt6vectorIS3_SaIS3_EEEEZN17CPUGraphTraversalIPv6VertexEC4EP20GraphTraversalSourceP14GraphTraversalISA_SB_EEUlS3_E_ET0_T_SK_SJ_ @996
    _ZSt8for_eachIN9__gnu_cxx17__normal_iteratorIPP6VertexSt6vectorIS3_SaIS3_EEEEZN17CPUGraphTraversalI4EdgeSA_E22get_initial_traversersEvEUlS3_E_ET0_T_SE_SD_ @997
    _ZSt8for_eachIN9__gnu_cxx17__normal_iteratorIPP6VertexSt6vectorIS3_SaIS3_EEEEZN17CPUGraphTraversalIPvS2_E22get_initial_traversersEvEUlS3_E_ET0_T_SE_SD_ @998
    _ZSt8for_eachIN9__gnu_cxx17__normal_iteratorIPP6VertexSt6vectorIS3_SaIS3_EEEEZN17CPUGraphTraversalIS2_S2_E22get_initial_traversersEvEUlS3_E_ET0_T_SD_SC_ @999
    _ZSt8for_eachIN9__gnu_cxx17__normal_iteratorIPP6VertexSt6vectorIS3_SaIS3_EEEEZZN17CPUGraphTraversalI4EdgeSA_E7executeEPS5_IP9TraverserIPvESaISF_EEENKUlSF_E0_clESF_EUlS3_E_ET0_T_SM_SL_ @1000
    _ZSt8for_eachIN9__gnu_cxx17__normal_iteratorIPP6VertexSt6vectorIS3_SaIS3_EEEEZZN17CPUGraphTraversalIPvS2_E7executeEPS5_IP9TraverserISA_ESaISE_EEENKUlSE_E0_clESE_EUlS3_E_ET0_T_SL_SK_ @1001
    _ZSt8for_eachIN9__gnu_cxx17__normal_iteratorIPP6VertexSt6vectorIS3_SaIS3_EEEEZZN17CPUGraphTraversalIS2_S2_E7executeEPS5_IP9TraverserIPvESaISE_EEENKUlSE_E0_clESE_EUlS3_E_ET0_T_SL_SK_ @1002
    _ZSt8for_eachIN9__gnu_cxx17__normal_iteratorIPP9TraverserIPvESt6vectorIS5_SaIS5_EEEEZN17CPUGraphTraversalI4EdgeSC_E15copy_traversersEPS9_EUlS5_E_ET0_T_SH_SG_ @1003
    _ZSt8for_eachIN9__gnu_cxx17__normal_iteratorIPP9TraverserIPvESt6vectorIS5_SaIS5_EEEEZN17CPUGraphTraversalI4EdgeSC_E7executeEPS9_EUlS5_E0_ET0_T_SH_SG_ @1004
    _ZSt8for_eachIN9__gnu_cxx17__normal_iteratorIPP9TraverserIPvESt6vectorIS5_SaIS5_EEEEZN17CPUGraphTraversalI4EdgeSC_E7executeEPS9_EUlS5_E1_ET0_T_SH_SG_ @1005
    _ZSt8for_eachIN9__gnu_cxx17__normal_iteratorIPP9TraverserIPvESt6vectorIS5_SaIS5_EEEEZN17CPUGraphTraversalI4EdgeSC_E7executeEPS9_EUlS5_E2_ET0_T_SH_SG_ @1006
    _ZSt8for_eachIN9__gnu_cxx17__normal_iteratorIPP9TraverserIPvESt6vectorIS5_SaIS5_EEEEZN17CPUGraphTraversalI4EdgeSC_E7executeEPS9_EUlS5_E3_ET0_T_SH_SG_ @1007
    _ZSt8for_eachIN9__gnu_cxx17__normal_iteratorIPP9TraverserIPvESt6vectorIS5_SaIS5_EEEEZN17CPUGraphTraversalI4EdgeSC_E7executeEPS9_EUlS5_E4_ET0_T_SH_SG_ @1008
    _ZSt8for_eachIN9__gnu_cxx17__normal_iteratorIPP9TraverserIPvESt6vectorIS5_SaIS5_EEEEZN17CPUGraphTraversalI4EdgeSC_E8get_nextEPS9_PSB_IS3_S3_EEUlS5_E_ET0_T_SJ_SI_ @1009
    _ZSt8for_eachIN9__gnu_cxx17__normal_iteratorIPP9TraverserIPvESt6vectorIS5_SaIS5_EEEEZN17CPUGraphTraversalI6VertexSC_E15copy_traversersEPS9_EUlS5_E_ET0_T_SH_SG_ @1010
    _ZSt8for_eachIN9__gnu_cxx17__normal_iteratorIPP9TraverserIPvESt6vectorIS5_SaIS5_EEEEZN17CPUGraphTraversalI6VertexSC_E7executeEPS9_EUlS5_E0_ET0_T_SH_SG_ @1011
    _ZSt8for_eachIN9__gnu_cxx17__normal_iteratorIPP9TraverserIPvESt6vectorIS5_SaIS5_EEEEZN17CPUGraphTraversalI6VertexSC_E7executeEPS9_EUlS5_E1_ET0_T_SH_SG_ @1012
    _ZSt8for_eachIN9__gnu_cxx17__normal_iteratorIPP9TraverserIPvESt6vectorIS5_SaIS5_EEEEZN17CPUGraphTraversalI6VertexSC_E7executeEPS9_EUlS5_E2_ET0_T_SH_SG_ @1013
    _ZSt8for_eachIN9__gnu_cxx17__normal_iteratorIPP9TraverserIPvESt6vectorIS5_SaIS5_EEEEZN17CPUGraphTraversalI6VertexSC_E7executeEPS9_EUlS5_E3_ET0_T_SH_SG_ @1014
    _ZSt8for_eachIN9__gnu_cxx17__normal_iteratorIPP9TraverserIPvESt6vectorIS5_SaIS5_EEEEZN17CPUGraphTraversalI6VertexSC_E7executeEPS9_EUlS5_E4_ET0_T_SH_SG_ @1015
    _ZSt8for_eachIN9__gnu_cxx17__normal_iteratorIPP9TraverserIPvESt6vectorIS5_SaIS5_EEEEZN17CPUGraphTraversalI6VertexSC_E8get_nextEPS9_PSB_IS3_S3_EEUlS5_E_ET0_T_SJ_SI_ @1016
    _ZSt8for_eachIN9__gnu_cxx17__normal_iteratorIPP9TraverserIPvESt6vectorIS5_SaIS5_EEEEZN17CPUGraphTraversalIS3_6VertexE15copy_traversersEPS9_EUlS5_E_ET0_T_SH_SG_ @1017
    _ZSt8for_eachIN9__gnu_cxx17__normal_iteratorIPP9TraverserIPvESt6vectorIS5_SaIS5_EEEEZN17CPUGraphTraversalIS3_6VertexE7executeEPS9_EUlS5_E0_ET0_T_SH_SG_ @1018
    _ZSt8for_eachIN9__gnu_cxx17__normal_iteratorIPP9TraverserIPvESt6vectorIS5_SaIS5_EEEEZN17CPUGraphTraversalIS3_6VertexE7executeEPS9_EUlS5_E1_ET0_T_SH_SG_ @1019
    _ZSt8for_eachIN9__gnu_cxx17__normal_iteratorIPP9TraverserIPvESt6vectorIS5_SaIS5_EEEEZN17CPUGraphTraversalIS3_6VertexE7executeEPS9_EUlS5_E2_ET0_T_SH_SG_ @1020
    _ZSt8for_eachIN9__gnu_cxx17__normal_iteratorIPP9TraverserIPvESt6vectorIS5_SaIS5_EEEEZN17CPUGraphTraversalIS3_6VertexE7executeEPS9_EUlS5_E3_ET0_T_SH_SG_ @1021
    _ZSt8for_eachIN9__gnu_cxx17__normal_iteratorIPP9TraverserIPvESt6vectorIS5_SaIS5_EEEEZN17CPUGraphTraversalIS3_6VertexE7executeEPS9_EUlS5_E4_ET0_T_SH_SG_ @1022
    _ZSt8for_eachIN9__gnu_cxx17__normal_iteratorIPP9TraverserIPvESt6vectorIS5_SaIS5_EEEEZN17CPUGraphTraversalIS3_6VertexE8get_nextEPS9_PSB_IS3_S3_EEUlS5_E_ET0_T_SJ_SI_ @1023
    _ZSt8for_eachIN9__gnu_cxx17__normal_iteratorIPPvSt6vectorIS2_SaIS2_EEEEZN14VertexPropertyIS2_EC4E11CardinalitySsS6_EUlS2_E_ET0_T_SD_SC_ @1024
    _ZSt8for_eachIN9__gnu_cxx17__normal_iteratorIPPvSt6vectorIS2_SaIS2_EEEEZN17CPUGraphTraversalI4EdgeS9_E7executeEPS4_IP9TraverserIS2_ESaISD_EEEUlS2_E_ET0_T_SJ_SI_ @1025
    _ZSt8for_eachIN9__gnu_cxx17__normal_iteratorIPPvSt6vectorIS2_SaIS2_EEEEZN17CPUGraphTraversalI6VertexS9_E7executeEPS4_IP9TraverserIS2_ESaISD_EEEUlS2_E_ET0_T_SJ_SI_ @1026
    _ZSt8for_eachIN9__gnu_cxx17__normal_iteratorIPPvSt6vectorIS2_SaIS2_EEEEZN17CPUGraphTraversalIS2_6VertexE7executeEPS4_IP9TraverserIS2_ESaISD_EEEUlS2_E_ET0_T_SJ_SI_ @1027
    _ZStltIcSt11char_traitsIcESaIcEEbRKSbIT_T0_T1_ES8_ @1028
    _ZTI13TraversalStep @1029 DATA
    _ZTI14GraphTraversalI4EdgeS0_E @1030 DATA
    _ZTI14GraphTraversalI6VertexS0_E @1031 DATA
    _ZTI14GraphTraversalIPv6VertexE @1032 DATA
    _ZTI14VertexPropertyIPvE @1033 DATA
    _ZTI17CPUGraphTraversalI4EdgeS0_E @1034 DATA
    _ZTI17CPUGraphTraversalI6VertexS0_E @1035 DATA
    _ZTI17CPUGraphTraversalIPv6VertexE @1036 DATA
    _ZTI20GraphTraversalSource @1037 DATA
    _ZTI23CPUGraphTraversalSource @1038 DATA
    _ZTI4Edge @1039 DATA
    _ZTI5Graph @1040 DATA
    _ZTI6Vertex @1041 DATA
    _ZTI7BitEdge @1042 DATA
    _ZTI7Element @1043 DATA
    _ZTI8CPUGraph @1044 DATA
    _ZTI8NoOpStep @1045 DATA
    _ZTI8PropertyIPvE @1046 DATA
    _ZTI9BitVertex @1047 DATA
    _ZTI9TraverserIP6VertexE @1048 DATA
    _ZTI9TraverserIPvE @1049 DATA
    _ZTISt13runtime_error @1050 DATA
    _ZTISt9exception @1051 DATA
    _ZTS13TraversalStep @1052 DATA
    _ZTS14GraphTraversalI4EdgeS0_E @1053 DATA
    _ZTS14GraphTraversalI6VertexS0_E @1054 DATA
    _ZTS14GraphTraversalIPv6VertexE @1055 DATA
    _ZTS14VertexPropertyIPvE @1056 DATA
    _ZTS17CPUGraphTraversalI4EdgeS0_E @1057 DATA
    _ZTS17CPUGraphTraversalI6VertexS0_E @1058 DATA
    _ZTS17CPUGraphTraversalIPv6VertexE @1059 DATA
    _ZTS20GraphTraversalSource @1060 DATA
    _ZTS23CPUGraphTraversalSource @1061 DATA
    _ZTS4Edge @1062 DATA
    _ZTS5Graph @1063 DATA
    _ZTS6Vertex @1064 DATA
    _ZTS7BitEdge @1065 DATA
    _ZTS7Element @1066 DATA
    _ZTS8CPUGraph @1067 DATA
    _ZTS8NoOpStep @1068 DATA
    _ZTS8PropertyIPvE @1069 DATA
    _ZTS9BitVertex @1070 DATA
    _ZTS9TraverserIP6VertexE @1071 DATA
    _ZTS9TraverserIPvE @1072 DATA
    _ZTSSt13runtime_error @1073 DATA
    _ZTSSt9exception @1074 DATA
    _ZTV14GraphTraversalI4EdgeS0_E @1075 DATA
    _ZTV14GraphTraversalI6VertexS0_E @1076 DATA
    _ZTV14GraphTraversalIPv6VertexE @1077 DATA
    _ZTV14VertexPropertyIPvE @1078 DATA
    _ZTV17CPUGraphTraversalI4EdgeS0_E @1079 DATA
    _ZTV17CPUGraphTraversalI6VertexS0_E @1080 DATA
    _ZTV17CPUGraphTraversalIPv6VertexE @1081 DATA
    _ZTV23CPUGraphTraversalSource @1082 DATA
    _ZTV4Edge @1083 DATA
    _ZTV6Vertex @1084 DATA
    _ZTV7BitEdge @1085 DATA
    _ZTV7Element @1086 DATA
    _ZTV8CPUGraph @1087 DATA
    _ZTV8NoOpStep @1088 DATA
    _ZTV8PropertyIPvE @1089 DATA
    _ZTV9BitVertex @1090 DATA
    _ZTV9TraverserIP6VertexE @1091 DATA
    _ZTV9TraverserIPvE @1092 DATA
    _ZZN14VertexPropertyIPvEC4E11CardinalitySsSt6vectorIS0_SaIS0_EEENKUlS0_E_clES0_ @1093
    _ZZN17CPUGraphTraversalI4EdgeS0_E15copy_traversersEPSt6vectorIP9TraverserIPvESaIS6_EEENKUlS6_E_clES6_ @1094
    _ZZN17CPUGraphTraversalI4EdgeS0_E22get_initial_traversersEvENKUlP6VertexE_clES3_ @1095
    _ZZN17CPUGraphTraversalI4EdgeS0_E7executeEPSt6vectorIP9TraverserIPvESaIS6_EEENKUlS4_E_clES4_ @1096
    _ZZN17CPUGraphTraversalI4EdgeS0_E7executeEPSt6vectorIP9TraverserIPvESaIS6_EEENKUlS6_E0_clES6_ @1097
    _ZZN17CPUGraphTraversalI4EdgeS0_E7executeEPSt6vectorIP9TraverserIPvESaIS6_EEENKUlS6_E1_clES6_ @1098
    _ZZN17CPUGraphTraversalI4EdgeS0_E7executeEPSt6vectorIP9TraverserIPvESaIS6_EEENKUlS6_E2_clES6_ @1099
    _ZZN17CPUGraphTraversalI4EdgeS0_E7executeEPSt6vectorIP9TraverserIPvESaIS6_EEENKUlS6_E3_clES6_ @1100
    _ZZN17CPUGraphTraversalI4EdgeS0_E7executeEPSt6vectorIP9TraverserIPvESaIS6_EEENKUlS6_E4_clES6_ @1101
    _ZZN17CPUGraphTraversalI4EdgeS0_E8get_nextEPSt6vectorIP9TraverserIPvESaIS6_EEPS_IS4_S4_EENKUlS6_E_clES6_ @1102
    _ZZN17CPUGraphTraversalI4EdgeS0_E8get_nextEPSt6vectorIP9TraverserIPvESaIS6_EEPS_IS4_S4_EENUlS6_E_4_FUNES6_ @1103
    _ZZN17CPUGraphTraversalI6VertexS0_E15copy_traversersEPSt6vectorIP9TraverserIPvESaIS6_EEENKUlS6_E_clES6_ @1104
    _ZZN17CPUGraphTraversalI6VertexS0_E22get_initial_traversersEvENKUlPS0_E_clES2_ @1105
    _ZZN17CPUGraphTraversalI6VertexS0_E7executeEPSt6vectorIP9TraverserIPvESaIS6_EEENKUlS4_E_clES4_ @1106
    _ZZN17CPUGraphTraversalI6VertexS0_E7executeEPSt6vectorIP9TraverserIPvESaIS6_EEENKUlS6_E0_clES6_ @1107
    _ZZN17CPUGraphTraversalI6VertexS0_E7executeEPSt6vectorIP9TraverserIPvESaIS6_EEENKUlS6_E1_clES6_ @1108
    _ZZN17CPUGraphTraversalI6VertexS0_E7executeEPSt6vectorIP9TraverserIPvESaIS6_EEENKUlS6_E2_clES6_ @1109
    _ZZN17CPUGraphTraversalI6VertexS0_E7executeEPSt6vectorIP9TraverserIPvESaIS6_EEENKUlS6_E3_clES6_ @1110
    _ZZN17CPUGraphTraversalI6VertexS0_E7executeEPSt6vectorIP9TraverserIPvESaIS6_EEENKUlS6_E4_clES6_ @1111
    _ZZN17CPUGraphTraversalI6VertexS0_E8get_nextEPSt6vectorIP9TraverserIPvESaIS6_EEPS_IS4_S4_EENKUlS6_E_clES6_ @1112
    _ZZN17CPUGraphTraversalI6VertexS0_E8get_nextEPSt6vectorIP9TraverserIPvESaIS6_EEPS_IS4_S4_EENUlS6_E_4_FUNES6_ @1113
    _ZZN17CPUGraphTraversalIPv6VertexE15copy_traversersEPSt6vectorIP9TraverserIS0_ESaIS6_EEENKUlS6_E_clES6_ @1114
    _ZZN17CPUGraphTraversalIPv6VertexE22get_initial_traversersEvENKUlPS1_E_clES3_ @1115
    _ZZN17CPUGraphTraversalIPv6VertexE7executeEPSt6vectorIP9TraverserIS0_ESaIS6_EEENKUlS0_E_clES0_ @1116
    _ZZN17CPUGraphTraversalIPv6VertexE7executeEPSt6vectorIP9TraverserIS0_ESaIS6_EEENKUlS6_E0_clES6_ @1117
    _ZZN17CPUGraphTraversalIPv6VertexE7executeEPSt6vectorIP9TraverserIS0_ESaIS6_EEENKUlS6_E1_clES6_ @1118
    _ZZN17CPUGraphTraversalIPv6VertexE7executeEPSt6vectorIP9TraverserIS0_ESaIS6_EEENKUlS6_E2_clES6_ @1119
    _ZZN17CPUGraphTraversalIPv6VertexE7executeEPSt6vectorIP9TraverserIS0_ESaIS6_EEENKUlS6_E3_clES6_ @1120
    _ZZN17CPUGraphTraversalIPv6VertexE7executeEPSt6vectorIP9TraverserIS0_ESaIS6_EEENKUlS6_E4_clES6_ @1121
    _ZZN17CPUGraphTraversalIPv6VertexE8get_nextEPSt6vectorIP9TraverserIS0_ESaIS6_EEPS_IS0_S0_EENKUlS6_E_clES6_ @1122
    _ZZN17CPUGraphTraversalIPv6VertexE8get_nextEPSt6vectorIP9TraverserIS0_ESaIS6_EEPS_IS0_S0_EENUlS6_E_4_FUNES6_ @1123
    _ZZN17CPUGraphTraversalIPv6VertexEC4EP20GraphTraversalSourceP14GraphTraversalIS0_S1_EENKUlP13TraversalStepE_clES9_ @1124
    _ZZZN17CPUGraphTraversalI4EdgeS0_E7executeEPSt6vectorIP9TraverserIPvESaIS6_EEENKUlS6_E0_clES6_ENKUlP6VertexE_clESC_ @1125
    _ZZZN17CPUGraphTraversalI6VertexS0_E7executeEPSt6vectorIP9TraverserIPvESaIS6_EEENKUlS6_E0_clES6_ENKUlPS0_E_clESB_ @1126
    _ZZZN17CPUGraphTraversalIPv6VertexE7executeEPSt6vectorIP9TraverserIS0_ESaIS6_EEENKUlS6_E0_clES6_ENKUlPS1_E_clESB_ @1127
    _ZdlPvS_ @1128
    _ZnwmPv @1129
    __gcc_deregister_frame @1130
    __gcc_register_frame @1131

IMPORTS

    libGremlin++.dll._ZN10VertexStep7getInfoEv
    libGremlin++.dll._ZN10VertexStepC1E9Direction13GraphStepType
    libGremlin++.dll._ZN10VertexStepC1E9DirectionSt6vectorISsSaISsEE13GraphStepType
    libGremlin++.dll._ZN10VertexStepC2E9Direction13GraphStepType
    libGremlin++.dll._ZN10VertexStepC2E9DirectionSt6vectorISsSaISsEE13GraphStepType
    libGremlin++.dll._ZN11AddEdgeStep16get_in_traversalEv
    libGremlin++.dll._ZN11AddEdgeStep16set_in_traversalEP14GraphTraversalIPv6VertexE
    libGremlin++.dll._ZN11AddEdgeStep17get_out_traversalEv
    libGremlin++.dll._ZN11AddEdgeStep17set_out_traversalEP14GraphTraversalIPv6VertexE
    libGremlin++.dll._ZN11AddEdgeStep7getInfoEv
    libGremlin++.dll._ZN11AddEdgeStep9get_labelEv
    libGremlin++.dll._ZN11AddEdgeStepC1ESs
    libGremlin++.dll._ZN11AddEdgeStepC2ESs
    libGremlin++.dll._ZN13AddVertexStep7getInfoEv
    libGremlin++.dll._ZN13AddVertexStepC1ESs
    libGremlin++.dll._ZN13AddVertexStepC1Ev
    libGremlin++.dll._ZN13AddVertexStepC2ESs
    libGremlin++.dll._ZN13AddVertexStepC2Ev
    libGremlin++.dll._ZN13TraversalStep7getInfoEv
    libGremlin++.dll._ZN13TraversalStepC1E17TraversalStepTypej
    libGremlin++.dll._ZN13TraversalStepC2E17TraversalStepTypej
    libGremlin++.dll._ZN14GraphTraversalIPv6VertexE19getInitialTraversalEv
    libGremlin++.dll._ZN14GraphTraversalIPv6VertexE7explainEv
    libGremlin++.dll._ZN14GraphTraversalIPvS0_E10appendStepEP13TraversalStep
    libGremlin++.dll._ZN14GraphTraversalIPvS0_E16forEachRemainingESt8functionIFvPS0_EE
    libGremlin++.dll._ZN14GraphTraversalIPvS0_E1VEP6Vertex
    libGremlin++.dll._ZN14GraphTraversalIPvS0_E4nextEv
    libGremlin++.dll._ZN14GraphTraversalIPvS0_E6selectESs
    libGremlin++.dll._ZN14GraphTraversalIPvS0_E7iterateEv
    libGremlin++.dll._ZN14GraphTraversalIPvS0_EC1Ev
    libGremlin++.dll._ZN16AddEdgeStartStep16get_in_traversalEv
    libGremlin++.dll._ZN16AddEdgeStartStep16set_in_traversalEP14GraphTraversalIPv6VertexE
    libGremlin++.dll._ZN16AddEdgeStartStep17get_out_traversalEv
    libGremlin++.dll._ZN16AddEdgeStartStep17set_out_traversalEP14GraphTraversalIPv6VertexE
    libGremlin++.dll._ZN16AddEdgeStartStep7getInfoEv
    libGremlin++.dll._ZN16AddEdgeStartStep9get_labelEv
    libGremlin++.dll._ZN16AddEdgeStartStepC1ESs
    libGremlin++.dll._ZN16AddEdgeStartStepC2ESs
    libGremlin++.dll._ZN18AddVertexStartStep7getInfoEv
    libGremlin++.dll._ZN18AddVertexStartStepC1ESs
    libGremlin++.dll._ZN18AddVertexStartStepC1Ev
    libGremlin++.dll._ZN18AddVertexStartStepC2ESs
    libGremlin++.dll._ZN18AddVertexStartStepC2Ev
    libGremlin++.dll._ZN20GraphTraversalSource8getGraphEv
    libGremlin++.dll._ZN20GraphTraversalSourceC1EP5Graph
    libGremlin++.dll._ZN20GraphTraversalSourceC2EP5Graph
    libGremlin++.dll._ZN5GraphC1Ev
    libGremlin++.dll._ZN5GraphC2Ev
    libGremlin++.dll._ZN6ToStep12getTraversalEv
    libGremlin++.dll._ZN6ToStep7getInfoEv
    libGremlin++.dll._ZN6ToStepC1EP14GraphTraversalIPv6VertexE
    libGremlin++.dll._ZN6ToStepC1EP6Vertex
    libGremlin++.dll._ZN6ToStepC1ESs
    libGremlin++.dll._ZN6ToStepC2EP14GraphTraversalIPv6VertexE
    libGremlin++.dll._ZN6ToStepC2EP6Vertex
    libGremlin++.dll._ZN6ToStepC2ESs
    libGremlin++.dll._ZN8FromStep12getTraversalEv
    libGremlin++.dll._ZN8FromStep7getInfoEv
    libGremlin++.dll._ZN8FromStepC1EP14GraphTraversalIPv6VertexE
    libGremlin++.dll._ZN8FromStepC1EP6Vertex
    libGremlin++.dll._ZN8FromStepC1ESs
    libGremlin++.dll._ZN8FromStepC2EP14GraphTraversalIPv6VertexE
    libGremlin++.dll._ZN8FromStepC2EP6Vertex
    libGremlin++.dll._ZN8FromStepC2ESs
    libGremlin++.dll._ZN8NoOpStep7getInfoEv
    libGremlin++.dll._ZN8NoOpStepC1Ev
    libGremlin++.dll._ZN9GraphStep15get_element_idsEv
    libGremlin++.dll._ZN9GraphStep7getInfoEv
    libGremlin++.dll._ZN9GraphStep7getTypeEv
    libGremlin++.dll._ZN9GraphStepC1E13GraphStepTypeSt6vectorIPvSaIS2_EE
    libGremlin++.dll._ZN9GraphStepC2E13GraphStepTypeSt6vectorIPvSaIS2_EE
    libGremlin++.dll._ZN9__gnu_cxx13new_allocatorIP13TraversalStepE10deallocateEPS2_m
    libGremlin++.dll._ZN9__gnu_cxx13new_allocatorIP13TraversalStepE7destroyIS2_EEvPT_
    libGremlin++.dll._ZN9__gnu_cxx13new_allocatorIP13TraversalStepE8allocateEmPKv
    libGremlin++.dll._ZN9__gnu_cxx13new_allocatorIP13TraversalStepE9constructIS2_JRKS2_EEEvPT_DpOT0_
    libGremlin++.dll._ZN9__gnu_cxx13new_allocatorIP13TraversalStepEC2Ev
    libGremlin++.dll._ZN9__gnu_cxx13new_allocatorIPvE10deallocateEPS1_m
    libGremlin++.dll._ZN9__gnu_cxx13new_allocatorIPvE8allocateEmPKv
    libGremlin++.dll._ZN9__gnu_cxx13new_allocatorIPvEC2ERKS2_
    libGremlin++.dll._ZN9__gnu_cxx13new_allocatorIPvEC2Ev
    libGremlin++.dll._ZN9__gnu_cxx13new_allocatorIPvED2Ev
    libGremlin++.dll._ZN9__gnu_cxx13new_allocatorISsE10deallocateEPSsm
    libGremlin++.dll._ZN9__gnu_cxx13new_allocatorISsE7destroyISsEEvPT_
    libGremlin++.dll._ZN9__gnu_cxx13new_allocatorISsE8allocateEmPKv
    libGremlin++.dll._ZN9__gnu_cxx13new_allocatorISsE9constructISsJRKSsEEEvPT_DpOT0_
    libGremlin++.dll._ZN9__gnu_cxx13new_allocatorISsEC2Ev
    libGremlin++.dll._ZN9__gnu_cxx14__alloc_traitsISaIPvEE15_S_always_equalEv
    libGremlin++.dll._ZN9__gnu_cxx14__alloc_traitsISaIPvEE17_S_select_on_copyERKS2_
    libGremlin++.dll._ZN9__gnu_cxx14__alloc_traitsISaIPvEE27_S_propagate_on_copy_assignEv
    libGremlin++.dll._ZN9__gnu_cxx17__normal_iteratorIPKPvSt6vectorIS1_SaIS1_EEEC1ERKS3_
    libGremlin++.dll._ZN9__gnu_cxx17__normal_iteratorIPPvSt6vectorIS1_SaIS1_EEEC1ERKS2_
    libGremlin++.dll._ZN9__gnu_cxx17__normal_iteratorIPSsSt6vectorISsSaISsEEEC1ERKS1_
    libGremlin++.dll._ZN9__gnu_cxx17__normal_iteratorIPSsSt6vectorISsSaISsEEEppEv
    libGremlin++.dll._ZN9__gnu_cxxneIPSsSt6vectorISsSaISsEEEEbRKNS_17__normal_iteratorIT_T0_EESA_
    libGremlin++.dll._ZNK9__gnu_cxx13new_allocatorIP13TraversalStepE8max_sizeEv
    libGremlin++.dll._ZNK9__gnu_cxx13new_allocatorIPvE8max_sizeEv
    libGremlin++.dll._ZNK9__gnu_cxx13new_allocatorISsE8max_sizeEv
    libGremlin++.dll._ZNK9__gnu_cxx17__normal_iteratorIPKPvSt6vectorIS1_SaIS1_EEE4baseEv
    libGremlin++.dll._ZNK9__gnu_cxx17__normal_iteratorIPPvSt6vectorIS1_SaIS1_EEE4baseEv
    libGremlin++.dll._ZNK9__gnu_cxx17__normal_iteratorIPSsSt6vectorISsSaISsEEE4baseEv
    libGremlin++.dll._ZNK9__gnu_cxx17__normal_iteratorIPSsSt6vectorISsSaISsEEEdeEv
    libGremlin++.dll._ZNKSt12_Vector_baseIP13TraversalStepSaIS1_EE19_M_get_Tp_allocatorEv
    libGremlin++.dll._ZNKSt12_Vector_baseIPvSaIS0_EE19_M_get_Tp_allocatorEv
    libGremlin++.dll._ZNKSt12_Vector_baseISsSaISsEE19_M_get_Tp_allocatorEv
    libGremlin++.dll._ZNKSt13move_iteratorIPP13TraversalStepE4baseEv
    libGremlin++.dll._ZNKSt13move_iteratorIPSsE4baseEv
    libGremlin++.dll._ZNKSt13move_iteratorIPSsEdeEv
    libGremlin++.dll._ZNKSt16initializer_listIPvE3endEv
    libGremlin++.dll._ZNKSt16initializer_listIPvE4sizeEv
    libGremlin++.dll._ZNKSt16initializer_listIPvE5beginEv
    libGremlin++.dll._ZNKSt6vectorIP13TraversalStepSaIS1_EE12_M_check_lenEmPKc
    libGremlin++.dll._ZNKSt6vectorIP13TraversalStepSaIS1_EE4sizeEv
    libGremlin++.dll._ZNKSt6vectorIP13TraversalStepSaIS1_EE8max_sizeEv
    libGremlin++.dll._ZNKSt6vectorIPvSaIS0_EE3endEv
    libGremlin++.dll._ZNKSt6vectorIPvSaIS0_EE4sizeEv
    libGremlin++.dll._ZNKSt6vectorIPvSaIS0_EE5beginEv
    libGremlin++.dll._ZNKSt6vectorIPvSaIS0_EE8capacityEv
    libGremlin++.dll._ZNKSt6vectorISsSaISsEE12_M_check_lenEmPKc
    libGremlin++.dll._ZNKSt6vectorISsSaISsEE14_M_range_checkEm
    libGremlin++.dll._ZNKSt6vectorISsSaISsEE4sizeEv
    libGremlin++.dll._ZNKSt6vectorISsSaISsEE8max_sizeEv
    libGremlin++.dll._ZNSaIP13TraversalStepEC2Ev
    libGremlin++.dll._ZNSaIPvEC1ERKS0_
    libGremlin++.dll._ZNSaIPvEC1Ev
    libGremlin++.dll._ZNSaIPvEC2ERKS0_
    libGremlin++.dll._ZNSaIPvEC2Ev
    libGremlin++.dll._ZNSaIPvED1Ev
    libGremlin++.dll._ZNSaIPvED2Ev
    libGremlin++.dll._ZNSaISsEC2Ev
    libGremlin++.dll._ZNSt10_Iter_baseIN9__gnu_cxx17__normal_iteratorIPKPvSt6vectorIS2_SaIS2_EEEELb0EE7_S_baseES8_
    libGremlin++.dll._ZNSt10_Iter_baseIN9__gnu_cxx17__normal_iteratorIPKPvSt6vectorIS2_SaIS2_EEEELb1EE7_S_baseES8_
    libGremlin++.dll._ZNSt10_Iter_baseIN9__gnu_cxx17__normal_iteratorIPPvSt6vectorIS2_SaIS2_EEEELb1EE7_S_baseES7_
    libGremlin++.dll._ZNSt10_Iter_baseIPKPvLb0EE7_S_baseES2_
    libGremlin++.dll._ZNSt10_Iter_baseIPP13TraversalStepLb0EE7_S_baseES2_
    libGremlin++.dll._ZNSt10_Iter_baseIPPvLb0EE7_S_baseES1_
    libGremlin++.dll._ZNSt10_Iter_baseISt13move_iteratorIPP13TraversalStepELb1EE7_S_baseES4_
    libGremlin++.dll._ZNSt11__copy_moveILb0ELb1ESt26random_access_iterator_tagE8__copy_mIPvEEPT_PKS4_S7_S5_
    libGremlin++.dll._ZNSt11__copy_moveILb1ELb1ESt26random_access_iterator_tagE8__copy_mIP13TraversalStepEEPT_PKS5_S8_S6_
    libGremlin++.dll._ZNSt12_Destroy_auxILb0EE9__destroyIPSsEEvT_S3_
    libGremlin++.dll._ZNSt12_Destroy_auxILb1EE9__destroyIN9__gnu_cxx17__normal_iteratorIPPvSt6vectorIS4_SaIS4_EEEEEEvT_SA_
    libGremlin++.dll._ZNSt12_Destroy_auxILb1EE9__destroyIPP13TraversalStepEEvT_S5_
    libGremlin++.dll._ZNSt12_Destroy_auxILb1EE9__destroyIPPvEEvT_S4_
    libGremlin++.dll._ZNSt12_Vector_baseIP13TraversalStepSaIS1_EE11_M_allocateEm
    libGremlin++.dll._ZNSt12_Vector_baseIP13TraversalStepSaIS1_EE12_Vector_implC1Ev
    libGremlin++.dll._ZNSt12_Vector_baseIP13TraversalStepSaIS1_EE13_M_deallocateEPS1_m
    libGremlin++.dll._ZNSt12_Vector_baseIP13TraversalStepSaIS1_EE19_M_get_Tp_allocatorEv
    libGremlin++.dll._ZNSt12_Vector_baseIP13TraversalStepSaIS1_EEC2Ev
    libGremlin++.dll._ZNSt12_Vector_baseIPvSaIS0_EE11_M_allocateEm
    libGremlin++.dll._ZNSt12_Vector_baseIPvSaIS0_EE12_Vector_implC1ERKS1_
    libGremlin++.dll._ZNSt12_Vector_baseIPvSaIS0_EE12_Vector_implC1Ev
    libGremlin++.dll._ZNSt12_Vector_baseIPvSaIS0_EE12_Vector_implD1Ev
    libGremlin++.dll._ZNSt12_Vector_baseIPvSaIS0_EE13_M_deallocateEPS0_m
    libGremlin++.dll._ZNSt12_Vector_baseIPvSaIS0_EE17_M_create_storageEm
    libGremlin++.dll._ZNSt12_Vector_baseIPvSaIS0_EE19_M_get_Tp_allocatorEv
    libGremlin++.dll._ZNSt12_Vector_baseIPvSaIS0_EEC2ERKS1_
    libGremlin++.dll._ZNSt12_Vector_baseIPvSaIS0_EEC2EmRKS1_
    libGremlin++.dll._ZNSt12_Vector_baseIPvSaIS0_EEC2Ev
    libGremlin++.dll._ZNSt12_Vector_baseIPvSaIS0_EED2Ev
    libGremlin++.dll._ZNSt12_Vector_baseISsSaISsEE11_M_allocateEm
    libGremlin++.dll._ZNSt12_Vector_baseISsSaISsEE12_Vector_implC1Ev
    libGremlin++.dll._ZNSt12_Vector_baseISsSaISsEE13_M_deallocateEPSsm
    libGremlin++.dll._ZNSt12_Vector_baseISsSaISsEE19_M_get_Tp_allocatorEv
    libGremlin++.dll._ZNSt12_Vector_baseISsSaISsEEC2Ev
    libGremlin++.dll._ZNSt13move_iteratorIPP13TraversalStepEC1ES2_
    libGremlin++.dll._ZNSt13move_iteratorIPSsEC1ES0_
    libGremlin++.dll._ZNSt13move_iteratorIPSsEppEv
    libGremlin++.dll._ZNSt16allocator_traitsISaIP13TraversalStepEE10deallocateERS2_PS1_m
    libGremlin++.dll._ZNSt16allocator_traitsISaIP13TraversalStepEE7destroyIS1_EEvRS2_PT_
    libGremlin++.dll._ZNSt16allocator_traitsISaIP13TraversalStepEE8allocateERS2_m
    libGremlin++.dll._ZNSt16allocator_traitsISaIP13TraversalStepEE8max_sizeERKS2_
    libGremlin++.dll._ZNSt16allocator_traitsISaIP13TraversalStepEE9constructIS1_JRKS1_EEEvRS2_PT_DpOT0_
    libGremlin++.dll._ZNSt16allocator_traitsISaIPvEE10deallocateERS1_PS0_m
    libGremlin++.dll._ZNSt16allocator_traitsISaIPvEE37select_on_container_copy_constructionERKS1_
    libGremlin++.dll._ZNSt16allocator_traitsISaIPvEE8allocateERS1_m
    libGremlin++.dll._ZNSt16allocator_traitsISaISsEE10deallocateERS0_PSsm
    libGremlin++.dll._ZNSt16allocator_traitsISaISsEE7destroyISsEEvRS0_PT_
    libGremlin++.dll._ZNSt16allocator_traitsISaISsEE8allocateERS0_m
    libGremlin++.dll._ZNSt16allocator_traitsISaISsEE8max_sizeERKS0_
    libGremlin++.dll._ZNSt16allocator_traitsISaISsEE9constructISsJRKSsEEEvRS0_PT_DpOT0_
    libGremlin++.dll._ZNSt20__uninitialized_copyILb0EE13__uninit_copyISt13move_iteratorIPSsES3_EET0_T_S6_S5_
    libGremlin++.dll._ZNSt20__uninitialized_copyILb1EE13__uninit_copyIN9__gnu_cxx17__normal_iteratorIPKPvSt6vectorIS4_SaIS4_EEEEPS4_EET0_T_SD_SC_
    libGremlin++.dll._ZNSt20__uninitialized_copyILb1EE13__uninit_copyIPKPvPS2_EET0_T_S7_S6_
    libGremlin++.dll._ZNSt20__uninitialized_copyILb1EE13__uninit_copyIPPvS3_EET0_T_S5_S4_
    libGremlin++.dll._ZNSt20__uninitialized_copyILb1EE13__uninit_copyISt13move_iteratorIPP13TraversalStepES5_EET0_T_S8_S7_
    libGremlin++.dll._ZNSt6vectorIP13TraversalStepSaIS1_EE19_M_emplace_back_auxIJRKS1_EEEvDpOT_
    libGremlin++.dll._ZNSt6vectorIP13TraversalStepSaIS1_EE9push_backERKS1_
    libGremlin++.dll._ZNSt6vectorIP13TraversalStepSaIS1_EEC1Ev
    libGremlin++.dll._ZNSt6vectorIP13TraversalStepSaIS1_EEixEm
    libGremlin++.dll._ZNSt6vectorIPvSaIS0_EE15_M_erase_at_endEPS0_
    libGremlin++.dll._ZNSt6vectorIPvSaIS0_EE19_M_range_initializeIPKS0_EEvT_S6_St20forward_iterator_tag
    libGremlin++.dll._ZNSt6vectorIPvSaIS0_EE20_M_allocate_and_copyIN9__gnu_cxx17__normal_iteratorIPKS0_S2_EEEEPS0_mT_SA_
    libGremlin++.dll._ZNSt6vectorIPvSaIS0_EE3endEv
    libGremlin++.dll._ZNSt6vectorIPvSaIS0_EE5beginEv
    libGremlin++.dll._ZNSt6vectorIPvSaIS0_EE5clearEv
    libGremlin++.dll._ZNSt6vectorIPvSaIS0_EEC1ERKS2_
    libGremlin++.dll._ZNSt6vectorIPvSaIS0_EEC1ESt16initializer_listIS0_ERKS1_
    libGremlin++.dll._ZNSt6vectorIPvSaIS0_EEC1Ev
    libGremlin++.dll._ZNSt6vectorIPvSaIS0_EED1Ev
    libGremlin++.dll._ZNSt6vectorIPvSaIS0_EEaSERKS2_
    libGremlin++.dll._ZNSt6vectorISsSaISsEE19_M_emplace_back_auxIJRKSsEEEvDpOT_
    libGremlin++.dll._ZNSt6vectorISsSaISsEE2atEm
    libGremlin++.dll._ZNSt6vectorISsSaISsEE3endEv
    libGremlin++.dll._ZNSt6vectorISsSaISsEE5beginEv
    libGremlin++.dll._ZNSt6vectorISsSaISsEE9push_backERKSs
    libGremlin++.dll._ZNSt6vectorISsSaISsEEC1Ev
    libGremlin++.dll._ZNSt6vectorISsSaISsEEixEm
    libGremlin++.dll._ZSt10_ConstructISsJSsEEvPT_DpOT0_
    libGremlin++.dll._ZSt10__distanceIPKPvENSt15iterator_traitsIT_E15difference_typeES4_S4_St26random_access_iterator_tag
    libGremlin++.dll._ZSt11__addressofISsEPT_RS0_
    libGremlin++.dll._ZSt12__miter_baseIN9__gnu_cxx17__normal_iteratorIPKPvSt6vectorIS2_SaIS2_EEEEENSt11_Miter_baseIT_E13iterator_typeESA_
    libGremlin++.dll._ZSt12__miter_baseIPKPvENSt11_Miter_baseIT_E13iterator_typeES4_
    libGremlin++.dll._ZSt12__miter_baseIPPvENSt11_Miter_baseIT_E13iterator_typeES3_
    libGremlin++.dll._ZSt12__miter_baseISt13move_iteratorIPP13TraversalStepEENSt11_Miter_baseIT_E13iterator_typeES6_
    libGremlin++.dll._ZSt12__niter_baseIN9__gnu_cxx17__normal_iteratorIPKPvSt6vectorIS2_SaIS2_EEEEENSt11_Niter_baseIT_E13iterator_typeESA_
    libGremlin++.dll._ZSt12__niter_baseIN9__gnu_cxx17__normal_iteratorIPPvSt6vectorIS2_SaIS2_EEEEENSt11_Niter_baseIT_E13iterator_typeES9_
    libGremlin++.dll._ZSt12__niter_baseIPKPvENSt11_Niter_baseIT_E13iterator_typeES4_
    libGremlin++.dll._ZSt12__niter_baseIPP13TraversalStepENSt11_Niter_baseIT_E13iterator_typeES4_
    libGremlin++.dll._ZSt12__niter_baseIPPvENSt11_Niter_baseIT_E13iterator_typeES3_
    libGremlin++.dll._ZSt13__copy_move_aILb0EPKPvPS0_ET1_T0_S5_S4_
    libGremlin++.dll._ZSt13__copy_move_aILb0EPPvS1_ET1_T0_S3_S2_
    libGremlin++.dll._ZSt13__copy_move_aILb1EPP13TraversalStepS2_ET1_T0_S4_S3_
    libGremlin++.dll._ZSt14__copy_move_a2ILb0EN9__gnu_cxx17__normal_iteratorIPKPvSt6vectorIS2_SaIS2_EEEENS1_IPS2_S7_EEET1_T0_SC_SB_
    libGremlin++.dll._ZSt14__copy_move_a2ILb0EN9__gnu_cxx17__normal_iteratorIPKPvSt6vectorIS2_SaIS2_EEEEPS2_ET1_T0_SB_SA_
    libGremlin++.dll._ZSt14__copy_move_a2ILb0EPKPvPS0_ET1_T0_S5_S4_
    libGremlin++.dll._ZSt14__copy_move_a2ILb0EPPvS1_ET1_T0_S3_S2_
    libGremlin++.dll._ZSt14__copy_move_a2ILb1EPP13TraversalStepS2_ET1_T0_S4_S3_
    libGremlin++.dll._ZSt15__alloc_on_copyISaIPvEEvRT_RKS2_
    libGremlin++.dll._ZSt18__do_alloc_on_copyISaIPvEEvRT_RKS2_St17integral_constantIbLb0EE
    libGremlin++.dll._ZSt18uninitialized_copyIN9__gnu_cxx17__normal_iteratorIPKPvSt6vectorIS2_SaIS2_EEEEPS2_ET0_T_SB_SA_
    libGremlin++.dll._ZSt18uninitialized_copyIPKPvPS0_ET0_T_S5_S4_
    libGremlin++.dll._ZSt18uninitialized_copyIPPvS1_ET0_T_S3_S2_
    libGremlin++.dll._ZSt18uninitialized_copyISt13move_iteratorIPP13TraversalStepES3_ET0_T_S6_S5_
    libGremlin++.dll._ZSt18uninitialized_copyISt13move_iteratorIPSsES1_ET0_T_S4_S3_
    libGremlin++.dll._ZSt19__iterator_categoryIPKPvENSt15iterator_traitsIT_E17iterator_categoryERKS4_
    libGremlin++.dll._ZSt22__uninitialized_copy_aIN9__gnu_cxx17__normal_iteratorIPKPvSt6vectorIS2_SaIS2_EEEEPS2_S2_ET0_T_SB_SA_RSaIT1_E
    libGremlin++.dll._ZSt22__uninitialized_copy_aIPKPvPS0_S0_ET0_T_S5_S4_RSaIT1_E
    libGremlin++.dll._ZSt22__uninitialized_copy_aIPPvS1_S0_ET0_T_S3_S2_RSaIT1_E
    libGremlin++.dll._ZSt22__uninitialized_copy_aISt13move_iteratorIPP13TraversalStepES3_S2_ET0_T_S6_S5_RSaIT1_E
    libGremlin++.dll._ZSt22__uninitialized_copy_aISt13move_iteratorIPSsES1_SsET0_T_S4_S3_RSaIT1_E
    libGremlin++.dll._ZSt32__make_move_if_noexcept_iteratorIPP13TraversalStepSt13move_iteratorIS2_EET0_T_
    libGremlin++.dll._ZSt32__make_move_if_noexcept_iteratorIPSsSt13move_iteratorIS0_EET0_T_
    libGremlin++.dll._ZSt34__uninitialized_move_if_noexcept_aIPP13TraversalStepS2_SaIS1_EET0_T_S5_S4_RT1_
    libGremlin++.dll._ZSt34__uninitialized_move_if_noexcept_aIPSsS0_SaISsEET0_T_S3_S2_RT1_
    libGremlin++.dll._ZSt3maxImERKT_S2_S2_
    libGremlin++.dll._ZSt4copyIN9__gnu_cxx17__normal_iteratorIPKPvSt6vectorIS2_SaIS2_EEEENS1_IPS2_S7_EEET0_T_SC_SB_
    libGremlin++.dll._ZSt4copyIN9__gnu_cxx17__normal_iteratorIPKPvSt6vectorIS2_SaIS2_EEEEPS2_ET0_T_SB_SA_
    libGremlin++.dll._ZSt4copyIPKPvPS0_ET0_T_S5_S4_
    libGremlin++.dll._ZSt4copyIPPvS1_ET0_T_S3_S2_
    libGremlin++.dll._ZSt4copyISt13move_iteratorIPP13TraversalStepES3_ET0_T_S6_S5_
    libGremlin++.dll._ZSt4moveIRSsEONSt16remove_referenceIT_E4typeEOS2_
    libGremlin++.dll._ZSt7forwardIRKP13TraversalStepEOT_RNSt16remove_referenceIS4_E4typeE
    libGremlin++.dll._ZSt7forwardIRKSsEOT_RNSt16remove_referenceIS2_E4typeE
    libGremlin++.dll._ZSt7forwardISsEOT_RNSt16remove_referenceIS0_E4typeE
    libGremlin++.dll._ZSt8_DestroyIN9__gnu_cxx17__normal_iteratorIPPvSt6vectorIS2_SaIS2_EEEEEvT_S8_
    libGremlin++.dll._ZSt8_DestroyIN9__gnu_cxx17__normal_iteratorIPPvSt6vectorIS2_SaIS2_EEEES2_EvT_S8_RSaIT0_E
    libGremlin++.dll._ZSt8_DestroyIPP13TraversalStepEvT_S3_
    libGremlin++.dll._ZSt8_DestroyIPP13TraversalStepS1_EvT_S3_RSaIT0_E
    libGremlin++.dll._ZSt8_DestroyIPPvEvT_S2_
    libGremlin++.dll._ZSt8_DestroyIPPvS0_EvT_S2_RSaIT0_E
    libGremlin++.dll._ZSt8_DestroyIPSsEvT_S1_
    libGremlin++.dll._ZSt8_DestroyIPSsSsEvT_S1_RSaIT0_E
    libGremlin++.dll._ZSt8_DestroyISsEvPT_
    libGremlin++.dll._ZSt8distanceIPKPvENSt15iterator_traitsIT_E15difference_typeES4_S4_
    libGremlin++.dll._ZSteqIPSsEbRKSt13move_iteratorIT_ES5_
    libGremlin++.dll._ZStneIPSsEbRKSt13move_iteratorIT_ES5_
    libGremlin++.dll._ZStneIPvEbRKSaIT_ES4_
    libGremlin++.dll._ZStplIcSt11char_traitsIcESaIcEESbIT_T0_T1_EOS6_PKS3_
    libGremlin++.dll._ZStplIcSt11char_traitsIcESaIcEESbIT_T0_T1_EPKS3_OS6_
    libGremlin++.dll._ZStplIcSt11char_traitsIcESaIcEESbIT_T0_T1_ERKS6_PKS3_
    libGremlin++.dll._ZStplIcSt11char_traitsIcESaIcEESbIT_T0_T1_ERKS6_S8_
    libGremlin++.dll._ZTI10VertexStep
    libGremlin++.dll._ZTI11AddEdgeStep
    libGremlin++.dll._ZTI13AddVertexStep
    libGremlin++.dll._ZTI13TraversalStep
    libGremlin++.dll._ZTI14GraphTraversalIPvS0_E
    libGremlin++.dll._ZTI16AddEdgeStartStep
    libGremlin++.dll._ZTI18AddVertexStartStep
    libGremlin++.dll._ZTI20GraphTraversalSource
    libGremlin++.dll._ZTI5Graph
    libGremlin++.dll._ZTI6ToStep
    libGremlin++.dll._ZTI8FromStep
    libGremlin++.dll._ZTI8NoOpStep
    libGremlin++.dll._ZTI9GraphStep
    libGremlin++.dll._ZTS10VertexStep
    libGremlin++.dll._ZTS11AddEdgeStep
    libGremlin++.dll._ZTS13AddVertexStep
    libGremlin++.dll._ZTS13TraversalStep
    libGremlin++.dll._ZTS14GraphTraversalIPvS0_E
    libGremlin++.dll._ZTS16AddEdgeStartStep
    libGremlin++.dll._ZTS18AddVertexStartStep
    libGremlin++.dll._ZTS20GraphTraversalSource
    libGremlin++.dll._ZTS5Graph
    libGremlin++.dll._ZTS6ToStep
    libGremlin++.dll._ZTS8FromStep
    libGremlin++.dll._ZTS8NoOpStep
    libGremlin++.dll._ZTS9GraphStep
    libGremlin++.dll._ZTV10VertexStep
    libGremlin++.dll._ZTV11AddEdgeStep
    libGremlin++.dll._ZTV13AddVertexStep
    libGremlin++.dll._ZTV13TraversalStep
    libGremlin++.dll._ZTV14GraphTraversalIPvS0_E
    libGremlin++.dll._ZTV16AddEdgeStartStep
    libGremlin++.dll._ZTV18AddVertexStartStep
    libGremlin++.dll._ZTV20GraphTraversalSource
    libGremlin++.dll._ZTV5Graph
    libGremlin++.dll._ZTV6ToStep
    libGremlin++.dll._ZTV8FromStep
    libGremlin++.dll._ZTV8NoOpStep
    libGremlin++.dll._ZTV9GraphStep
    libGremlin++.dll._ZdlPvS_
    libGremlin++.dll._ZnwmPv
    libGremlin++.dll.__gcc_deregister_frame
    libGremlin++.dll.__gcc_register_frame
